(dp1
S'OriginalConfig'
p2
ccopy_reg
_reconstructor
p3
(cWMCore.Configuration
Configuration
p4
c__builtin__
object
p5
NtRp6
(dp7
S'Site'
p8
g3
(cWMCore.Configuration
ConfigSection
p9
g5
NtRp10
(dp11
S'_internal_skipChecks'
p12
I00
sS'_internal_documentation'
p13
S''
sS'_internal_settings'
p14
c__builtin__
set
p15
((lp16
S'storageSite'
p17
atRp18
sS'_internal_name'
p19
g8
sS'_internal_docstrings'
p20
(dp21
sS'_internal_children'
p22
g15
((ltRp23
sg17
S'T3_US_Rice'
p24
sS'_internal_parent_ref'
p25
NsbsS'_internal_sections'
p26
(lp27
S'General'
p28
aS'JobType'
p29
aS'Data'
p30
aS'User'
p31
ag8
asg28
g3
(g9
g5
NtRp32
(dp33
g12
I00
sg13
S''
sg14
g15
((lp34
S'transferOutputs'
p35
atRp36
sg19
g28
sg20
(dp37
sg35
I01
sg22
g15
((ltRp38
sg25
NsbsS'_internal_webapps'
p39
(lp40
sg31
g3
(g9
g5
NtRp41
(dp42
g12
I00
sg13
S''
sg14
g15
((ltRp43
sg19
g31
sg20
(dp44
sg22
g15
((ltRp45
sg25
NsbsS'_internal_components'
p46
(lp47
sg30
g3
(g9
g5
NtRp48
(dp49
S'inputDataset'
p50
S'/JetHT/Run2018B-17Sep2018-v1/MINIAOD'
p51
sg12
I00
sS'splitting'
p52
S'LumiBased'
p53
sS'unitsPerJob'
p54
I120
sg13
S''
sg14
g15
((lp55
g50
aS'publication'
p56
ag54
ag52
aS'inputDBS'
p57
aS'outLFNDirBase'
p58
aS'lumiMask'
p59
atRp60
sg19
g30
sg57
S'https://cmsweb.cern.ch/dbs/prod/global/DBSReader'
p61
sg20
(dp62
sg22
g15
((ltRp63
sg58
S'/store/user/pgardner/large_MINIAOD'
p64
sg25
Nsg59
S'https://cms-service-dqm.web.cern.ch/cms-service-dqm/CAF/certification/Collisions18/13TeV/ReReco/Cert_314472-325175_13TeV_17SeptEarlyReReco2018ABC_PromptEraD_Collisions18_JSON.txt'
p65
sg56
I00
sbsg29
g3
(g9
g5
NtRp66
(dp67
S'outputFiles'
p68
(lp69
S'output_working.root'
p70
asg12
I00
sg13
S''
sg14
g15
((lp71
S'psetName'
p72
aS'pluginName'
p73
ag68
aS'allowUndistributedCMSSW'
p74
atRp75
sg19
g29
sg20
(dp76
sg73
S'Analysis'
p77
sg22
g15
((ltRp78
sg74
I01
sg72
S'test.py'
p79
sg25
NsbsbsS'voGroup'
p80
S''
sS'Server'
p81
S'cmsweb.cern.ch'
p82
sS'instance'
p83
S'prod'
p84
sS'RequestName'
p85
V200731_022050:pgardner_crab_20200731_042045
p86
sS'voRole'
p87
S'NULL'
p88
sS'Port'
p89
S''
s.