ccopy_reg
_reconstructor
p0
(cFWCore.ParameterSet.Config
Process
p1
c__builtin__
object
p2
Ntp3
Rp4
(dp5
S'CaloGeometryBuilder'
p6
g0
(cFWCore.ParameterSet.Modules
ESProducer
p7
g2
Ntp8
Rp9
(dp10
S'_Parameterizable__parameterNames'
p11
(lp12
S'SelectedCalos'
p13
asS'_isFrozen'
p14
I00
sS'_isModified'
p15
I00
sS'_lineNumber'
p16
I53
sS'_filename'
p17
S'/cvmfs/cms.cern.ch/slc7_amd64_gcc700/cms/cmssw-patch/CMSSW_10_3_3_patch1/python/FWCore/ParameterSet/Modules.py'
p18
sg13
g0
(cFWCore.ParameterSet.Types
vstring
p19
c__builtin__
list
p20
(lp21
S'HCAL'
p22
aS'ZDC'
p23
aS'CASTOR'
p24
aS'EcalBarrel'
p25
aS'EcalEndcap'
p26
aS'EcalPreshower'
p27
aS'TOWER'
p28
atp29
Rp30
(dp31
g14
I00
sS'_ParameterTypeBase__isTracked'
p32
I01
sg15
I00
sS'_nPerLine'
p33
I1
sbsS'_Labelable__label'
p34
g6
sS'_TypedParameterizable__type'
p35
g6
sbsS'_Process__sequences'
p36
(dp37
S'eventFilterHLT'
p38
g0
(cFWCore.ParameterSet.SequenceTypes
Sequence
p39
g2
Ntp40
Rp41
(dp42
g14
I00
sS'_seq'
p43
g0
(cFWCore.ParameterSet.SequenceTypes
_SequenceCollection
p44
g2
Ntp45
Rp46
(dp47
S'_collection'
p48
(lp49
g0
(cFWCore.ParameterSet.Modules
EDFilter
p50
g2
Ntp51
Rp52
(dp53
g11
(lp54
S'eventSetupPathsKey'
p55
aS'andOr'
p56
aS'HLTPaths'
p57
aS'throw'
p58
aS'TriggerResultsTag'
p59
asg14
I00
sg57
g0
(g19
g20
(lp60
S'HLT_PFJet500*'
p61
atp62
Rp63
(dp64
g14
I00
sg32
I01
sg15
I01
sg33
I1
sbsg15
I01
sg16
I29
sg17
S'/afs/cern.ch/user/p/pgardner/CMSSW_10_3_3_patch1/src/HeavyIonsAnalysis/TrackAnalysis/python/test.py'
p65
sg34
S'hlt'
p66
sg55
g0
(cFWCore.ParameterSet.Types
string
p67
g2
Ntp68
Rp69
(dp70
g14
I00
sg32
I01
sS'_value'
p71
S''
p72
sg15
I00
sbsg59
g0
(cFWCore.ParameterSet.Types
InputTag
p73
g2
Ntp74
Rp75
(dp76
g14
I00
sg32
I01
sg15
I00
sS'_InputTag__moduleLabel'
p77
S'TriggerResults'
p78
sS'_InputTag__productInstance'
p79
g72
sS'_InputTag__processName'
p80
S'HLT'
p81
sbsg58
g0
(cFWCore.ParameterSet.Types
bool
p82
g2
Ntp83
Rp84
(dp85
g14
I00
sg32
I01
sg71
I00
sg15
I00
sbsg35
S'HLTHighLevel'
p86
sg56
g0
(g82
g2
Ntp87
Rp88
(dp89
g14
I00
sg32
I01
sg71
I01
sg15
I00
sbsbasbsg34
g38
sg15
I00
sS'_tasks'
p90
g0
(cFWCore.ParameterSet.OrderedSet
OrderedSet
p91
g2
Ntp92
Rp93
(dp94
S'map'
p95
(dp96
sS'end'
p97
(lp98
Nag98
ag98
asbsbssS'_Process__source'
p99
g0
(cFWCore.ParameterSet.Modules
Source
p100
g2
Ntp101
Rp102
(dp103
g11
(lp104
S'duplicateCheckMode'
p105
aS'fileNames'
p106
asg14
I00
sg15
I00
sg105
g0
(g67
g2
Ntp107
Rp108
(dp109
g14
I00
sg32
I00
sg71
S'noDuplicateCheck'
p110
sg15
I00
sbsg16
I193
sg17
g18
sg106
g0
(g19
g20
(lp111
S'/store/group/phys_heavyions/FECEF784-7DCA-984D-AF75-1991ACA0747A.root'
p112
atp113
Rp114
(dp115
g14
I00
sg32
I00
sg15
I00
sg33
I1
sbsg35
S'PoolSource'
p116
sbsS'XMLFromDBSource'
p117
g0
(g7
g2
Ntp118
Rp119
(dp120
g11
(lp121
S'rootDDName'
p122
aS'label'
p123
asg14
I00
sg15
I00
sg16
I53
sg17
g18
sg122
g0
(g67
g2
Ntp124
Rp125
(dp126
g14
I00
sg32
I01
sg71
S'cms:OCMS'
p127
sg15
I00
sbsg123
g0
(g67
g2
Ntp128
Rp129
(dp130
g14
I00
sg32
I01
sg71
S'Extended'
p131
sg15
I00
sbsg34
g117
sg35
S'XMLIdealGeometryESProducer'
p132
sbsS'TFileService'
p133
g0
(cFWCore.ParameterSet.Modules
Service
p134
g2
Ntp135
Rp136
(dp137
g11
(lp138
S'fileName'
p139
asg14
I00
sS'_inProcess'
p140
I01
sg15
I00
sg16
I11
sg17
g18
sg139
g0
(g67
g2
Ntp141
Rp142
(dp143
g14
I00
sg32
I01
sg71
S'output_working.root'
p144
sg15
I00
sbsg35
g133
sbsS'hcalDDDSimConstants'
p145
g0
(g7
g2
Ntp146
Rp147
(dp148
g11
(lp149
S'appendToDataLabel'
p150
asg14
I00
sg150
g0
(g67
g2
Ntp151
Rp152
(dp153
g14
I00
sg32
I01
sg71
g72
sg15
I00
sbsg15
I00
sg16
I53
sg17
g18
sg34
g145
sg35
S'HcalDDDSimConstantsESModule'
p154
sbsS'source'
p155
g102
sS'RandomNumberGeneratorService'
p156
g0
(g134
g2
Ntp157
Rp158
(dp159
g14
I00
sS'horeco'
p160
g0
(cFWCore.ParameterSet.Types
PSet
p161
g2
Ntp162
Rp163
(dp164
g14
I00
sg32
I01
sg15
I00
sS'initialSeed'
p165
g0
(cFWCore.ParameterSet.Types
uint32
p166
g2
Ntp167
Rp168
(dp169
g14
I00
sg32
I00
sg71
I541321
sg15
I00
sbsg11
(lp170
g165
aS'engineName'
p171
asg171
g0
(g67
g2
Ntp172
Rp173
(dp174
g14
I00
sg32
I00
sg71
S'MixMaxRng'
p175
sg15
I00
sbsbsg16
I11
sS'externalLHEProducer'
p176
g0
(g161
g2
Ntp177
Rp178
(dp179
g14
I00
sg32
I01
sg15
I00
sg165
g0
(g166
g2
Ntp180
Rp181
(dp182
g14
I00
sg32
I00
sg71
I234567
sg15
I00
sbsg11
(lp183
g165
ag171
asg171
g0
(g67
g2
Ntp184
Rp185
(dp186
g14
I00
sg32
I00
sg71
g175
sg15
I00
sbsbsS'saveFileName'
p187
g0
(g67
g2
Ntp188
Rp189
(dp190
g14
I00
sg32
I00
sg71
g72
sg15
I00
sbsS'fastSimProducer'
p191
g0
(g161
g2
Ntp192
Rp193
(dp194
g14
I00
sg32
I01
sg15
I00
sg165
g0
(g166
g2
Ntp195
Rp196
(dp197
g14
I00
sg32
I00
sg71
I13579
sg15
I00
sbsg11
(lp198
g165
ag171
asg171
g173
sbsS'hbhereco'
p199
g0
(g161
g2
Ntp200
Rp201
(dp202
g14
I00
sg32
I01
sg15
I00
sg165
g0
(g166
g2
Ntp203
Rp204
(dp205
g14
I00
sg32
I00
sg71
I541321
sg15
I00
sbsg11
(lp206
g165
ag171
asg171
g173
sbsS'simSiStripDigiSimLink'
p207
g0
(g161
g2
Ntp208
Rp209
(dp210
g14
I00
sg32
I01
sg15
I00
sg165
g0
(g166
g2
Ntp211
Rp212
(dp213
g14
I00
sg32
I00
sg71
I1234567
sg15
I00
sbsg11
(lp214
g165
ag171
asg171
g185
sbsS'paramMuons'
p215
g0
(g161
g2
Ntp216
Rp217
(dp218
g14
I00
sg32
I01
sg15
I00
sg165
g0
(g166
g2
Ntp219
Rp220
(dp221
g14
I00
sg32
I00
sg71
I54525
sg15
I00
sbsg11
(lp222
g165
ag171
asg171
g173
sbsS'famosPileUp'
p223
g0
(g161
g2
Ntp224
Rp225
(dp226
g14
I00
sg32
I01
sg15
I00
sg165
g0
(g166
g2
Ntp227
Rp228
(dp229
g14
I00
sg32
I00
sg71
I918273
sg15
I00
sbsg11
(lp230
g165
ag171
asg171
g173
sbsS'simMuonDTDigis'
p231
g0
(g161
g2
Ntp232
Rp233
(dp234
g14
I00
sg32
I01
sg15
I00
sg165
g0
(g166
g2
Ntp235
Rp236
(dp237
g14
I00
sg32
I00
sg71
I1234567
sg15
I00
sbsg11
(lp238
g165
ag171
asg171
g185
sbsg35
g156
sg11
(lp239
g160
ag176
ag187
aS'mixRecoTracks'
p240
ag199
ag207
ag215
ag223
ag231
aS'ecalPreshowerRecHit'
p241
aS'generator'
p242
aS'simMuonRPCDigis'
p243
aS'hiSignal'
p244
aS'CTPPSFastRecHits'
p245
aS'mixSimCaloHits'
p246
aS'mix'
p247
aS'fastTrackerRecHits'
p248
aS'VtxSmeared'
p249
aS'LHCTransport'
p250
aS'ecalRecHit'
p251
aS'hfreco'
p252
ag191
aS'hiSignalG4SimHits'
p253
aS'MuonSimHits'
p254
aS'g4SimHits'
p255
aS'hiSignalLHCTransport'
p256
aS'mixGenPU'
p257
aS'l1ParamMuons'
p258
aS'simBeamSpotFilter'
p259
aS'simMuonCSCDigis'
p260
aS'mixData'
p261
asg241
g0
(g161
g2
Ntp262
Rp263
(dp264
g14
I00
sg32
I01
sg15
I00
sg165
g0
(g166
g2
Ntp265
Rp266
(dp267
g14
I00
sg32
I00
sg71
I6541321
sg15
I00
sbsg11
(lp268
g165
ag171
asg171
g173
sbsg140
I01
sg242
g0
(g161
g2
Ntp269
Rp270
(dp271
g14
I00
sg32
I01
sg15
I00
sg165
g0
(g166
g2
Ntp272
Rp273
(dp274
g14
I00
sg32
I00
sg71
I123456789
sg15
I00
sbsg11
(lp275
g165
ag171
asg171
g185
sbsg243
g0
(g161
g2
Ntp276
Rp277
(dp278
g14
I00
sg32
I01
sg15
I00
sg165
g0
(g166
g2
Ntp279
Rp280
(dp281
g14
I00
sg32
I00
sg71
I1234567
sg15
I00
sbsg11
(lp282
g165
ag171
asg171
g185
sbsg244
g0
(g161
g2
Ntp283
Rp284
(dp285
g14
I00
sg32
I01
sg15
I00
sg165
g0
(g166
g2
Ntp286
Rp287
(dp288
g14
I00
sg32
I00
sg71
I123456789
sg15
I00
sbsg11
(lp289
g165
ag171
asg171
g185
sbsg245
g0
(g161
g2
Ntp290
Rp291
(dp292
g14
I00
sg32
I01
sg15
I00
sg165
g0
(g166
g2
Ntp293
Rp294
(dp295
g14
I00
sg32
I00
sg71
I1357987
sg15
I00
sbsg11
(lp296
g165
ag171
asg171
g173
sbsg246
g0
(g161
g2
Ntp297
Rp298
(dp299
g14
I00
sg32
I01
sg15
I00
sg165
g0
(g166
g2
Ntp300
Rp301
(dp302
g14
I00
sg32
I00
sg71
I918273
sg15
I00
sbsg11
(lp303
g165
ag171
asg171
g173
sbsg247
g0
(g161
g2
Ntp304
Rp305
(dp306
g14
I00
sg32
I01
sg15
I00
sg165
g0
(g166
g2
Ntp307
Rp308
(dp309
g14
I00
sg32
I00
sg71
I12345
sg15
I00
sbsg11
(lp310
g165
ag171
asg171
g185
sbsg248
g0
(g161
g2
Ntp311
Rp312
(dp313
g14
I00
sg32
I01
sg15
I00
sg165
g0
(g166
g2
Ntp314
Rp315
(dp316
g14
I00
sg32
I00
sg71
I24680
sg15
I00
sbsg11
(lp317
g165
ag171
asg171
g173
sbsg249
g0
(g161
g2
Ntp318
Rp319
(dp320
g14
I00
sg32
I01
sg15
I00
sg165
g0
(g166
g2
Ntp321
Rp322
(dp323
g14
I00
sg32
I00
sg71
I98765432
sg15
I00
sbsg11
(lp324
g165
ag171
asg171
g185
sbsg250
g0
(g161
g2
Ntp325
Rp326
(dp327
g14
I00
sg32
I01
sg15
I00
sg165
g0
(g166
g2
Ntp328
Rp329
(dp330
g14
I00
sg32
I00
sg71
I87654321
sg15
I00
sbsg11
(lp331
g165
ag171
asg171
g173
sbsg251
g0
(g161
g2
Ntp332
Rp333
(dp334
g14
I00
sg32
I01
sg15
I00
sg165
g0
(g166
g2
Ntp335
Rp336
(dp337
g14
I00
sg32
I00
sg71
I654321
sg15
I00
sbsg11
(lp338
g165
ag171
asg171
g173
sbsg261
g0
(g161
g2
Ntp339
Rp340
(dp341
g14
I00
sg32
I01
sg15
I00
sg165
g0
(g166
g2
Ntp342
Rp343
(dp344
g14
I00
sg32
I00
sg71
I12345
sg15
I00
sbsg11
(lp345
g165
ag171
asg171
g185
sbsg240
g0
(g161
g2
Ntp346
Rp347
(dp348
g14
I00
sg32
I01
sg15
I00
sg165
g0
(g166
g2
Ntp349
Rp350
(dp351
g14
I00
sg32
I00
sg71
I918273
sg15
I00
sbsg11
(lp352
g165
ag171
asg171
g173
sbsg253
g0
(g161
g2
Ntp353
Rp354
(dp355
g14
I00
sg32
I01
sg15
I00
sg165
g0
(g166
g2
Ntp356
Rp357
(dp358
g14
I00
sg32
I00
sg71
I11
sg15
I00
sbsg11
(lp359
g165
ag171
asg171
g185
sbsg254
g0
(g161
g2
Ntp360
Rp361
(dp362
g14
I00
sg32
I01
sg15
I00
sg165
g0
(g166
g2
Ntp363
Rp364
(dp365
g14
I00
sg32
I00
sg71
I987346
sg15
I00
sbsg11
(lp366
g165
ag171
asg171
g173
sbsg255
g0
(g161
g2
Ntp367
Rp368
(dp369
g14
I00
sg32
I01
sg15
I00
sg165
g0
(g166
g2
Ntp370
Rp371
(dp372
g14
I00
sg32
I00
sg71
I11
sg15
I00
sbsg11
(lp373
g165
ag171
asg171
g185
sbsg256
g0
(g161
g2
Ntp374
Rp375
(dp376
g14
I00
sg32
I01
sg15
I00
sg165
g0
(g166
g2
Ntp377
Rp378
(dp379
g14
I00
sg32
I00
sg71
I88776655
sg15
I00
sbsg11
(lp380
g165
ag171
asg171
g173
sbsg257
g0
(g161
g2
Ntp381
Rp382
(dp383
g14
I00
sg32
I01
sg15
I00
sg165
g0
(g166
g2
Ntp384
Rp385
(dp386
g14
I00
sg32
I00
sg71
I918273
sg15
I00
sbsg11
(lp387
g165
ag171
asg171
g173
sbsg258
g0
(g161
g2
Ntp388
Rp389
(dp390
g14
I00
sg32
I01
sg15
I00
sg165
g0
(g166
g2
Ntp391
Rp392
(dp393
g14
I00
sg32
I00
sg71
I6453209
sg15
I00
sbsg11
(lp394
g165
ag171
asg171
g173
sbsg15
I00
sg259
g0
(g161
g2
Ntp395
Rp396
(dp397
g14
I00
sg32
I01
sg15
I00
sg165
g0
(g166
g2
Ntp398
Rp399
(dp400
g14
I00
sg32
I00
sg71
I87654321
sg15
I00
sbsg11
(lp401
g165
ag171
asg171
g185
sbsg260
g0
(g161
g2
Ntp402
Rp403
(dp404
g14
I00
sg32
I01
sg15
I00
sg165
g0
(g166
g2
Ntp405
Rp406
(dp407
g14
I00
sg32
I00
sg71
I11223344
sg15
I00
sbsg11
(lp408
g165
ag171
asg171
g185
sbsg252
g0
(g161
g2
Ntp409
Rp410
(dp411
g14
I00
sg32
I01
sg15
I00
sg165
g0
(g166
g2
Ntp412
Rp413
(dp414
g14
I00
sg32
I00
sg71
I541321
sg15
I00
sbsg11
(lp415
g165
ag171
asg171
g173
sbsg17
g18
sbsS'CaloTowerGeometryFromDBEP'
p416
g0
(g7
g2
Ntp417
Rp418
(dp419
g11
(lp420
S'applyAlignment'
p421
asg14
I00
sg15
I00
sg16
I53
sg17
g18
sg34
g416
sg421
g0
(g82
g2
Ntp422
Rp423
(dp424
g14
I00
sg32
I01
sg71
I00
sg15
I00
sbsg35
g416
sbsg38
g41
sS'_Process__InExtendCall'
p425
I00
sS'_Process__producers'
p426
(dp427
S'randomEngineStateProducer'
p428
g0
(cFWCore.ParameterSet.Modules
EDProducer
p429
g2
Ntp430
Rp431
(dp432
g11
(lp433
sg14
I00
sg15
I00
sg16
I162
sg17
S'/cvmfs/cms.cern.ch/slc7_amd64_gcc700/cms/cmssw-patch/CMSSW_10_3_3_patch1/python/IOMC/RandomEngine/IOMC_cff.py'
p434
sg34
g428
sg35
S'RandomEngineStateProducer'
p435
sbssS'siPixelQualityESProducer'
p436
g0
(g7
g2
Ntp437
Rp438
(dp439
g11
(lp440
S'ListOfRecordToMerge'
p441
asg14
I00
sg15
I01
sg16
I53
sg17
g18
sg441
g0
(cFWCore.ParameterSet.Types
VPSet
p442
g20
(lp443
g0
(g161
g2
Ntp444
Rp445
(dp446
g14
I00
sg32
I01
sg15
I00
sS'record'
p447
g0
(g67
g2
Ntp448
Rp449
(dp450
g14
I00
sg32
I01
sg71
S'SiPixelQualityFromDbRcd'
p451
sg15
I00
sbsS'tag'
p452
g0
(g67
g2
Ntp453
Rp454
(dp455
g14
I00
sg32
I01
sg71
g72
sg15
I00
sbsg11
(lp456
g447
ag452
asbag0
(g161
g2
Ntp457
Rp458
(dp459
g14
I00
sg32
I01
sg15
I00
sg447
g0
(g67
g2
Ntp460
Rp461
(dp462
g14
I00
sg32
I01
sg71
S'SiPixelDetVOffRcd'
p463
sg15
I00
sbsg452
g0
(g67
g2
Ntp464
Rp465
(dp466
g14
I00
sg32
I01
sg71
g72
sg15
I00
sbsg11
(lp467
g447
ag452
asbatp468
Rp469
(dp470
g14
I00
sg32
I01
sg15
I00
sg33
I1
sbsg34
g436
sg35
S'SiPixelQualityESProducer'
p471
sbsS'GlobalTag'
p472
g0
(cFWCore.ParameterSet.Modules
ESSource
p473
g2
Ntp474
Rp475
(dp476
g11
(lp477
S'DBParameters'
p478
aS'connect'
p479
aS'globaltag'
p480
aS'RefreshEachRun'
p481
aS'pfnPrefix'
p482
aS'snapshotTime'
p483
aS'toGet'
p484
aS'pfnPostfix'
p485
aS'RefreshAlways'
p486
aS'ReconnectEachRun'
p487
aS'RefreshOpenIOVs'
p488
aS'DumpStat'
p489
asg14
I00
sg17
S'/cvmfs/cms.cern.ch/slc7_amd64_gcc700/cms/cmssw-patch/CMSSW_10_3_3_patch1/python/CondCore/ESSources/CondDBESSource_cfi.py'
p490
sg15
I00
sg480
g0
(g67
g2
Ntp491
Rp492
(dp493
g14
I00
sg32
I01
sg71
g72
sg15
I00
sbsg481
g0
(g82
g2
Ntp494
Rp495
(dp496
g14
I00
sg32
I00
sg71
I00
sg15
I00
sbsg482
g0
(g67
g2
Ntp497
Rp498
(dp499
g14
I00
sg32
I00
sg71
g72
sg15
I00
sbsg483
g0
(g67
g2
Ntp500
Rp501
(dp502
g14
I00
sg32
I01
sg71
g72
sg15
I00
sbsg484
g0
(g442
g20
(lp503
tp504
Rp505
(dp506
g14
I00
sg32
I01
sg15
I00
sg33
I1
sbsg485
g0
(g67
g2
Ntp507
Rp508
(dp509
g14
I00
sg32
I00
sg71
g72
sg15
I00
sbsg478
g0
(g161
g2
Ntp510
Rp511
(dp512
g14
I00
sg32
I01
sS'authenticationPath'
p513
g0
(g67
g2
Ntp514
Rp515
(dp516
g14
I00
sg32
I00
sg71
g72
sg15
I00
sbsg15
I00
sS'messageLevel'
p517
g0
(cFWCore.ParameterSet.Types
int32
p518
g2
Ntp519
Rp520
(dp521
g14
I00
sg32
I00
sg71
I0
sg15
I00
sbsg11
(lp522
g517
aS'security'
p523
aS'authenticationSystem'
p524
ag513
asg523
g0
(g67
g2
Ntp525
Rp526
(dp527
g14
I00
sg32
I00
sg71
g72
sg15
I00
sbsg524
g0
(g518
g2
Ntp528
Rp529
(dp530
g14
I00
sg32
I00
sg71
I0
sg15
I00
sbsbsg486
g0
(g82
g2
Ntp531
Rp532
(dp533
g14
I00
sg32
I00
sg71
I00
sg15
I00
sbsg16
I19
sg479
g0
(g67
g2
Ntp534
Rp535
(dp536
g14
I00
sg32
I01
sg71
S'frontier://FrontierProd/CMS_CONDITIONS'
p537
sg15
I00
sbsg487
g0
(g82
g2
Ntp538
Rp539
(dp540
g14
I00
sg32
I00
sg71
I00
sg15
I00
sbsg34
g472
sg488
g0
(g82
g2
Ntp541
Rp542
(dp543
g14
I00
sg32
I00
sg71
I00
sg15
I00
sbsg489
g0
(g82
g2
Ntp544
Rp545
(dp546
g14
I00
sg32
I00
sg71
I00
sg15
I00
sbsg35
S'PoolDBESSource'
p547
sbsS'_Process__endpaths'
p548
g0
(cFWCore.ParameterSet.DictTypes
SortedKeysDict
p549
c__builtin__
dict
p550
(dp551
tp552
Rp553
(dp554
S'list'
p555
(lp556
sbsS'MuonDetLayerGeometryESProducer'
p557
g0
(g7
g2
Ntp558
Rp559
(dp560
g11
(lp561
sg14
I00
sg15
I00
sg16
I53
sg17
g18
sg34
g557
sg35
g557
sbsS'EcalEndcapGeometryFromDBEP'
p562
g0
(g7
g2
Ntp563
Rp564
(dp565
g11
(lp566
g421
asg14
I00
sg15
I01
sg16
I53
sg17
g18
sg34
g562
sg421
g0
(g82
g2
Ntp567
Rp568
(dp569
g14
I00
sg32
I01
sg71
I01
sg15
I01
sbsg35
g562
sbsS'MessageLogger'
p570
g0
(g134
g2
Ntp571
Rp572
(dp573
g14
I00
sS'suppressInfo'
p574
g0
(g19
g20
(lp575
tp576
Rp577
(dp578
g14
I00
sg32
I00
sg15
I00
sg33
I1
sbsS'suppressDebug'
p579
g0
(g19
g20
(lp580
tp581
Rp582
(dp583
g14
I00
sg32
I00
sg15
I00
sg33
I1
sbsS'cout'
p584
g0
(g161
g2
Ntp585
Rp586
(dp587
g14
I00
sg32
I00
sS'placeholder'
p588
g0
(g82
g2
Ntp589
Rp590
(dp591
g14
I00
sg32
I00
sg71
I01
sg15
I00
sbsg15
I00
sg11
(lp592
g588
asbsg16
I11
sS'debugModules'
p593
g0
(g19
g20
(lp594
tp595
Rp596
(dp597
g14
I00
sg32
I00
sg15
I00
sg33
I1
sbsg35
g570
sS'fwkJobReports'
p598
g0
(g19
g20
(lp599
S'FrameworkJobReport'
p600
atp601
Rp602
(dp603
g14
I00
sg32
I00
sg15
I00
sg33
I1
sbsg11
(lp604
g574
aS'debugs'
p605
ag579
ag584
aS'cerr_stats'
p606
aS'warnings'
p607
aS'default'
p608
aS'statistics'
p609
aS'cerr'
p610
ag600
aS'suppressWarning'
p611
aS'errors'
p612
aS'destinations'
p613
ag593
aS'infos'
p614
aS'categories'
p615
ag598
asg609
g0
(g19
g20
(lp616
g606
atp617
Rp618
(dp619
g14
I00
sg32
I00
sg15
I00
sg33
I1
sbsg17
g18
sg613
g0
(g19
g20
(lp620
g607
ag612
ag614
ag605
ag584
ag610
atp621
Rp622
(dp623
g14
I00
sg32
I00
sg15
I00
sg33
I1
sbsg605
g0
(g161
g2
Ntp624
Rp625
(dp626
g14
I00
sg32
I00
sg588
g0
(g82
g2
Ntp627
Rp628
(dp629
g14
I00
sg32
I00
sg71
I01
sg15
I00
sbsg15
I00
sg11
(lp630
g588
asbsg607
g0
(g161
g2
Ntp631
Rp632
(dp633
g14
I00
sg32
I00
sg588
g0
(g82
g2
Ntp634
Rp635
(dp636
g14
I00
sg32
I00
sg71
I01
sg15
I00
sbsg15
I00
sg11
(lp637
g588
asbsg612
g0
(g161
g2
Ntp638
Rp639
(dp640
g14
I00
sg32
I00
sg588
g0
(g82
g2
Ntp641
Rp642
(dp643
g14
I00
sg32
I00
sg71
I01
sg15
I00
sbsg15
I00
sg11
(lp644
g588
asbsg600
g0
(g161
g2
Ntp645
Rp646
(dp647
g14
I00
sg32
I00
sg15
I00
sg608
g0
(g161
g2
Ntp648
Rp649
(dp650
g14
I00
sg32
I00
sS'limit'
p651
g0
(g518
g2
Ntp652
Rp653
(dp654
g14
I00
sg32
I00
sg71
I0
sg15
I00
sbsg15
I00
sg11
(lp655
g651
asbsS'FwkJob'
p656
g0
(g161
g2
Ntp657
Rp658
(dp659
g14
I00
sg32
I00
sg15
I00
sg651
g0
(g518
g2
Ntp660
Rp661
(dp662
g14
I00
sg32
I00
sg71
I10000000
sg15
I00
sbsg11
(lp663
S'optionalPSet'
p664
ag651
asg664
g0
(g82
g2
Ntp665
Rp666
(dp667
g14
I00
sg32
I00
sg71
I01
sg15
I00
sbsbsg11
(lp668
g608
ag664
ag656
asg664
g0
(g82
g2
Ntp669
Rp670
(dp671
g14
I00
sg32
I00
sg71
I01
sg15
I00
sbsbsg611
g0
(g19
g20
(lp672
tp673
Rp674
(dp675
g14
I00
sg32
I00
sg15
I00
sg33
I1
sbsg614
g0
(g161
g2
Ntp676
Rp677
(dp678
g14
I00
sg32
I00
sg15
I00
sS'Root_NoDictionary'
p679
g0
(g161
g2
Ntp680
Rp681
(dp682
g14
I00
sg32
I00
sg15
I00
sg651
g0
(g518
g2
Ntp683
Rp684
(dp685
g14
I00
sg32
I00
sg71
I0
sg15
I00
sbsg11
(lp686
g664
ag651
asg664
g0
(g82
g2
Ntp687
Rp688
(dp689
g14
I00
sg32
I00
sg71
I01
sg15
I00
sbsbsg11
(lp690
g664
ag679
ag588
asg664
g0
(g82
g2
Ntp691
Rp692
(dp693
g14
I00
sg32
I00
sg71
I01
sg15
I00
sbsg588
g0
(g82
g2
Ntp694
Rp695
(dp696
g14
I00
sg32
I00
sg71
I01
sg15
I00
sbsbsg615
g0
(g19
g20
(lp697
g656
aS'FwkReport'
p698
aS'FwkSummary'
p699
ag679
atp700
Rp701
(dp702
g14
I00
sg32
I00
sg15
I00
sg33
I1
sbsg15
I00
sg606
g0
(g161
g2
Ntp703
Rp704
(dp705
g14
I00
sg32
I00
sg15
I00
sg664
g0
(g82
g2
Ntp706
Rp707
(dp708
g14
I00
sg32
I00
sg71
I01
sg15
I00
sbsg11
(lp709
S'threshold'
p710
aS'output'
p711
ag664
asg710
g0
(g67
g2
Ntp712
Rp713
(dp714
g14
I00
sg32
I00
sg71
S'WARNING'
p715
sg15
I00
sbsg711
g0
(g67
g2
Ntp716
Rp717
(dp718
g14
I00
sg32
I00
sg71
g610
sg15
I00
sbsbsg608
g0
(g161
g2
Ntp719
Rp720
(dp721
g14
I00
sg32
I00
sg15
I00
sg11
(lp722
sbsg140
I01
sg610
g0
(g161
g2
Ntp723
Rp724
(dp725
g14
I00
sg32
I00
sS'noTimeStamps'
p726
g0
(g82
g2
Ntp727
Rp728
(dp729
g14
I00
sg32
I00
sg71
I00
sg15
I00
sbsg698
g0
(g161
g2
Ntp730
Rp731
(dp732
g14
I00
sg32
I00
sg15
I00
sS'reportEvery'
p733
g0
(g518
g2
Ntp734
Rp735
(dp736
g14
I00
sg32
I00
sg71
I1
sg15
I00
sbsg651
g0
(g518
g2
Ntp737
Rp738
(dp739
g14
I00
sg32
I00
sg71
I10000000
sg15
I00
sbsg11
(lp740
g733
ag664
ag651
asg664
g0
(g82
g2
Ntp741
Rp742
(dp743
g14
I00
sg32
I00
sg71
I01
sg15
I00
sbsbsg15
I00
sg608
g0
(g161
g2
Ntp744
Rp745
(dp746
g14
I00
sg32
I00
sg651
g0
(g518
g2
Ntp747
Rp748
(dp749
g14
I00
sg32
I00
sg71
I10000000
sg15
I00
sbsg15
I00
sg11
(lp750
g651
asbsg679
g0
(g161
g2
Ntp751
Rp752
(dp753
g14
I00
sg32
I00
sg15
I00
sg651
g0
(g518
g2
Ntp754
Rp755
(dp756
g14
I00
sg32
I00
sg71
I0
sg15
I00
sbsg11
(lp757
g664
ag651
asg664
g0
(g82
g2
Ntp758
Rp759
(dp760
g14
I00
sg32
I00
sg71
I01
sg15
I00
sbsbsS'INFO'
p761
g0
(g161
g2
Ntp762
Rp763
(dp764
g14
I00
sg32
I00
sg651
g0
(g518
g2
Ntp765
Rp766
(dp767
g14
I00
sg32
I00
sg71
I0
sg15
I00
sbsg15
I00
sg11
(lp768
g651
asbsg664
g0
(g82
g2
Ntp769
Rp770
(dp771
g14
I00
sg32
I00
sg71
I01
sg15
I00
sbsg656
g0
(g161
g2
Ntp772
Rp773
(dp774
g14
I00
sg32
I00
sg15
I00
sg651
g0
(g518
g2
Ntp775
Rp776
(dp777
g14
I00
sg32
I00
sg71
I0
sg15
I00
sbsg11
(lp778
g664
ag651
asg664
g0
(g82
g2
Ntp779
Rp780
(dp781
g14
I00
sg32
I00
sg71
I01
sg15
I00
sbsbsg699
g0
(g161
g2
Ntp782
Rp783
(dp784
g14
I00
sg32
I00
sg15
I00
sg733
g0
(g518
g2
Ntp785
Rp786
(dp787
g14
I00
sg32
I00
sg71
I1
sg15
I00
sbsg651
g0
(g518
g2
Ntp788
Rp789
(dp790
g14
I00
sg32
I00
sg71
I10000000
sg15
I00
sbsg11
(lp791
g733
ag664
ag651
asg664
g0
(g82
g2
Ntp792
Rp793
(dp794
g14
I00
sg32
I00
sg71
I01
sg15
I00
sbsbsg11
(lp795
g761
ag726
ag698
ag608
ag679
ag710
ag656
ag699
ag664
asg710
g0
(g67
g2
Ntp796
Rp797
(dp798
g14
I00
sg32
I00
sg71
g761
sg15
I00
sbsbsbsS'_Process__services'
p799
(dp800
g570
g572
sS'DQMStore'
p801
g0
(g134
g2
Ntp802
Rp803
(dp804
g11
(lp805
S'referenceFileName'
p806
aS'verbose'
p807
aS'collateHistograms'
p808
aS'enableMultiThread'
p809
aS'forceResetOnBeginLumi'
p810
aS'LSbasedMode'
p811
aS'verboseQT'
p812
asg14
I00
sg140
I01
sg807
g0
(g518
g2
Ntp813
Rp814
(dp815
g14
I00
sg32
I00
sg71
I0
sg15
I00
sbsg808
g0
(g82
g2
Ntp816
Rp817
(dp818
g14
I00
sg32
I00
sg71
I00
sg15
I00
sbsg806
g0
(g67
g2
Ntp819
Rp820
(dp821
g14
I00
sg32
I00
sg71
g72
sg15
I00
sbsg809
g0
(g82
g2
Ntp822
Rp823
(dp824
g14
I00
sg32
I00
sg71
I00
sg15
I00
sbsg810
g0
(g82
g2
Ntp825
Rp826
(dp827
g14
I00
sg32
I00
sg71
I00
sg15
I00
sbsg16
I11
sg811
g0
(g82
g2
Ntp828
Rp829
(dp830
g14
I00
sg32
I00
sg71
I00
sg15
I00
sbsg17
g18
sg812
g0
(g518
g2
Ntp831
Rp832
(dp833
g14
I00
sg32
I00
sg71
I0
sg15
I00
sbsg35
g801
sg15
I00
sbsg156
g158
sg133
g136
ssg66
g52
sg801
g803
sS'HcalTimeSlewEP'
p834
g0
(g473
g2
Ntp835
Rp836
(dp837
g11
(lp838
S'timeSlewParametersM3'
p839
aS'timeSlewParametersM2'
p840
ag150
asg14
I00
sg839
g0
(g442
g20
(lp841
g0
(g161
g2
Ntp842
Rp843
(dp844
g14
I00
sg32
I01
sS'tspar2'
p845
g0
(cFWCore.ParameterSet.Types
double
p846
g2
Ntp847
Rp848
(dp849
g14
I00
sg32
I01
sg71
F0.0
sg15
I00
sbsg15
I00
sS'tspar0'
p850
g0
(g846
g2
Ntp851
Rp852
(dp853
g14
I00
sg32
I01
sg71
F12.2999
sg15
I00
sbsS'tspar1'
p854
g0
(g846
g2
Ntp855
Rp856
(dp857
g14
I00
sg32
I01
sg71
F-2.19142
sg15
I00
sbsS'tspar1_siPM'
p858
g0
(g846
g2
Ntp859
Rp860
(dp861
g14
I00
sg32
I01
sg71
F0.0
sg15
I00
sbsS'cap'
p862
g0
(g846
g2
Ntp863
Rp864
(dp865
g14
I00
sg32
I01
sg71
F6.0
sg15
I00
sbsS'tspar0_siPM'
p866
g0
(g846
g2
Ntp867
Rp868
(dp869
g14
I00
sg32
I01
sg71
F0.0
sg15
I00
sbsg11
(lp870
g845
ag850
ag854
ag858
ag862
ag866
aS'tspar2_siPM'
p871
asg871
g0
(g846
g2
Ntp872
Rp873
(dp874
g14
I00
sg32
I01
sg71
F0.0
sg15
I00
sbsbag0
(g161
g2
Ntp875
Rp876
(dp877
g14
I00
sg32
I01
sg845
g0
(g846
g2
Ntp878
Rp879
(dp880
g14
I00
sg32
I01
sg71
F32.0
sg15
I00
sbsg15
I00
sg850
g0
(g846
g2
Ntp881
Rp882
(dp883
g14
I00
sg32
I01
sg71
F15.5
sg15
I00
sbsg854
g0
(g846
g2
Ntp884
Rp885
(dp886
g14
I00
sg32
I01
sg71
F-3.2
sg15
I00
sbsg858
g0
(g846
g2
Ntp887
Rp888
(dp889
g14
I00
sg32
I01
sg71
F0.0
sg15
I00
sbsg862
g0
(g846
g2
Ntp890
Rp891
(dp892
g14
I00
sg32
I01
sg71
F6.0
sg15
I00
sbsg866
g0
(g846
g2
Ntp893
Rp894
(dp895
g14
I00
sg32
I01
sg71
F0.0
sg15
I00
sbsg11
(lp896
g845
ag850
ag854
ag858
ag862
ag866
ag871
asg871
g0
(g846
g2
Ntp897
Rp898
(dp899
g14
I00
sg32
I01
sg71
F0.0
sg15
I00
sbsbag0
(g161
g2
Ntp900
Rp901
(dp902
g14
I00
sg32
I01
sg845
g0
(g846
g2
Ntp903
Rp904
(dp905
g14
I00
sg32
I01
sg71
F0.0
sg15
I00
sbsg15
I00
sg850
g0
(g846
g2
Ntp906
Rp907
(dp908
g14
I00
sg32
I01
sg71
F12.2999
sg15
I00
sbsg854
g0
(g846
g2
Ntp909
Rp910
(dp911
g14
I00
sg32
I01
sg71
F-2.19142
sg15
I00
sbsg858
g0
(g846
g2
Ntp912
Rp913
(dp914
g14
I00
sg32
I01
sg71
F0.0
sg15
I00
sbsg862
g0
(g846
g2
Ntp915
Rp916
(dp917
g14
I00
sg32
I01
sg71
F6.0
sg15
I00
sbsg866
g0
(g846
g2
Ntp918
Rp919
(dp920
g14
I00
sg32
I01
sg71
F0.0
sg15
I00
sbsg11
(lp921
g845
ag850
ag854
ag858
ag862
ag866
ag871
asg871
g0
(g846
g2
Ntp922
Rp923
(dp924
g14
I00
sg32
I01
sg71
F0.0
sg15
I00
sbsbag0
(g161
g2
Ntp925
Rp926
(dp927
g14
I00
sg32
I01
sg845
g0
(g846
g2
Ntp928
Rp929
(dp930
g14
I00
sg32
I01
sg71
F0.0
sg15
I00
sbsg15
I00
sg850
g0
(g846
g2
Ntp931
Rp932
(dp933
g14
I00
sg32
I01
sg71
F12.2999
sg15
I00
sbsg854
g0
(g846
g2
Ntp934
Rp935
(dp936
g14
I00
sg32
I01
sg71
F-2.19142
sg15
I00
sbsg858
g0
(g846
g2
Ntp937
Rp938
(dp939
g14
I00
sg32
I01
sg71
F0.0
sg15
I00
sbsg862
g0
(g846
g2
Ntp940
Rp941
(dp942
g14
I00
sg32
I01
sg71
F6.0
sg15
I00
sbsg866
g0
(g846
g2
Ntp943
Rp944
(dp945
g14
I00
sg32
I01
sg71
F0.0
sg15
I00
sbsg11
(lp946
g845
ag850
ag854
ag858
ag862
ag866
ag871
asg871
g0
(g846
g2
Ntp947
Rp948
(dp949
g14
I00
sg32
I01
sg71
F0.0
sg15
I00
sbsbatp950
Rp951
(dp952
g14
I00
sg32
I01
sg15
I00
sg33
I1
sbsg840
g0
(g442
g20
(lp953
g0
(g161
g2
Ntp954
Rp955
(dp956
g14
I00
sg32
I01
sg15
I00
sS'slope'
p957
g0
(g846
g2
Ntp958
Rp959
(dp960
g14
I00
sg32
I01
sg71
F-3.178648
sg15
I00
sbsS'tmax'
p961
g0
(g846
g2
Ntp962
Rp963
(dp964
g14
I00
sg32
I01
sg71
F16.0
sg15
I00
sbsS'tzero'
p965
g0
(g846
g2
Ntp966
Rp967
(dp968
g14
I00
sg32
I01
sg71
F23.960177
sg15
I00
sbsg11
(lp969
g957
ag961
ag965
asbag0
(g161
g2
Ntp970
Rp971
(dp972
g14
I00
sg32
I01
sg15
I00
sg957
g0
(g846
g2
Ntp973
Rp974
(dp975
g14
I00
sg32
I01
sg71
F-1.556668
sg15
I00
sbsg961
g0
(g846
g2
Ntp976
Rp977
(dp978
g14
I00
sg32
I01
sg71
F10.0
sg15
I00
sbsg965
g0
(g846
g2
Ntp979
Rp980
(dp981
g14
I00
sg32
I01
sg71
F13.307784
sg15
I00
sbsg11
(lp982
g957
ag961
ag965
asbag0
(g161
g2
Ntp983
Rp984
(dp985
g14
I00
sg32
I01
sg15
I00
sg957
g0
(g846
g2
Ntp986
Rp987
(dp988
g14
I00
sg32
I01
sg71
F-1.075824
sg15
I00
sbsg961
g0
(g846
g2
Ntp989
Rp990
(dp991
g14
I00
sg32
I01
sg71
F6.25
sg15
I00
sbsg965
g0
(g846
g2
Ntp992
Rp993
(dp994
g14
I00
sg32
I01
sg71
F9.109694
sg15
I00
sbsg11
(lp995
g957
ag961
ag965
asbatp996
Rp997
(dp998
g14
I00
sg32
I01
sg15
I00
sg33
I1
sbsg15
I00
sg16
I23
sg17
S'/cvmfs/cms.cern.ch/slc7_amd64_gcc700/cms/cmssw-patch/CMSSW_10_3_3_patch1/python/CalibCalorimetry/HcalPlugins/HcalTimeSlew_cff.py'
p999
sg150
g0
(g67
g2
Ntp1000
Rp1001
(dp1002
g14
I00
sg32
I01
sg71
S'HBHE'
p1003
sg15
I00
sbsg34
g834
sg35
g834
sbsS'HcalGeometryFromDBEP'
p1004
g0
(g7
g2
Ntp1005
Rp1006
(dp1007
g11
(lp1008
g421
asg14
I00
sg15
I01
sg16
I53
sg17
g18
sg34
g1004
sg421
g0
(g82
g2
Ntp1009
Rp1010
(dp1011
g14
I00
sg32
I01
sg71
I01
sg15
I01
sbsg35
g1004
sbsS'HFRecalParameterBlock'
p1012
g0
(g161
g2
Ntp1013
Rp1014
(dp1015
g14
I00
sg32
I01
sg15
I00
sS'HFdepthTwoParameterA'
p1016
g0
(cFWCore.ParameterSet.Types
vdouble
p1017
g20
(lp1018
F0.002861
aF0.004168
aF0.0064
aF0.008388
aF0.011601
aF0.014425
aF0.018633
aF0.023232
aF0.028274
aF0.035447
aF0.051579
aF0.086593
atp1019
Rp1020
(dp1021
g14
I00
sg32
I01
sg15
I00
sbsS'HFdepthOneParameterA'
p1022
g0
(g1017
g20
(lp1023
F0.004123
aF0.00602
aF0.008201
aF0.010489
aF0.013379
aF0.016997
aF0.021464
aF0.027371
aF0.034195
aF0.044807
aF0.058939
aF0.125497
atp1024
Rp1025
(dp1026
g14
I00
sg32
I01
sg15
I00
sbsS'HFdepthOneParameterB'
p1027
g0
(g1017
g20
(lp1028
F-4e-06
aF-2e-06
aF0.0
aF4e-06
aF1.5e-05
aF2.6e-05
aF6.3e-05
aF8.4e-05
aF0.00016
aF0.000107
aF0.000425
aF0.000209
atp1029
Rp1030
(dp1031
g14
I00
sg32
I01
sg15
I00
sbsS'HFdepthTwoParameterB'
p1032
g0
(g1017
g20
(lp1033
F-2e-06
aF-0.0
aF-7e-06
aF-6e-06
aF-2e-06
aF1e-06
aF1.9e-05
aF3.1e-05
aF6.7e-05
aF1.2e-05
aF0.000157
aF-3e-06
atp1034
Rp1035
(dp1036
g14
I00
sg32
I01
sg15
I00
sbsg11
(lp1037
g1022
ag1027
ag1032
ag1016
asg34
g1012
sbsS'trackerGeometryDB'
p1038
g0
(g7
g2
Ntp1039
Rp1040
(dp1041
g11
(lp1042
g150
aS'fromDDD'
p1043
ag421
aS'alignmentsLabel'
p1044
asg14
I00
sg150
g0
(g67
g2
Ntp1045
Rp1046
(dp1047
g14
I00
sg32
I01
sg71
g72
sg15
I00
sbsg15
I00
sg1044
g0
(g67
g2
Ntp1048
Rp1049
(dp1050
g14
I00
sg32
I01
sg71
g72
sg15
I00
sbsg17
g18
sg16
I53
sg34
g1038
sg1043
g0
(g82
g2
Ntp1051
Rp1052
(dp1053
g14
I00
sg32
I01
sg71
I00
sg15
I00
sbsg421
g0
(g82
g2
Ntp1054
Rp1055
(dp1056
g14
I00
sg32
I01
sg71
I01
sg15
I00
sbsg35
S'TrackerDigiGeometryESModule'
p1057
sbsS'eegeom'
p1058
g0
(g473
g2
Ntp1059
Rp1060
(dp1061
g11
(lp1062
S'iovIsRunNotTime'
p1063
aS'recordName'
p1064
aS'firstValid'
p1065
asg14
I00
sg15
I00
sg16
I6
sg1064
g0
(g67
g2
Ntp1066
Rp1067
(dp1068
g14
I00
sg32
I01
sg71
S'EcalMappingRcd'
p1069
sg15
I00
sbsg17
S'/cvmfs/cms.cern.ch/slc7_amd64_gcc700/cms/cmssw-patch/CMSSW_10_3_3_patch1/python/Geometry/EcalMapping/EcalMappingRecord_cfi.py'
p1070
sg1065
g0
(cFWCore.ParameterSet.Types
vuint32
p1071
g20
(lp1072
I1
atp1073
Rp1074
(dp1075
g14
I00
sg32
I01
sg15
I00
sbsg34
g1058
sg1063
g0
(g82
g2
Ntp1076
Rp1077
(dp1078
g14
I00
sg32
I01
sg71
I01
sg15
I00
sbsg35
S'EmptyESSource'
p1079
sbsS'_Process__vpsets'
p1080
(dp1081
sS'EcalTrigTowerConstituentsMapBuilder'
p1082
g0
(g7
g2
Ntp1083
Rp1084
(dp1085
g11
(lp1086
S'MapFile'
p1087
asg14
I00
sg15
I00
sg1087
g0
(g67
g2
Ntp1088
Rp1089
(dp1090
g14
I00
sg32
I00
sg71
S'Geometry/EcalMapping/data/EndCap_TTMap.txt'
p1091
sg15
I00
sbsg17
g18
sg16
I53
sg34
g1082
sg35
g1082
sbsS'siStripBackPlaneCorrectionDepESProducer'
p1092
g0
(g7
g2
Ntp1093
Rp1094
(dp1095
g11
(lp1096
S'LatencyRecord'
p1097
aS'BackPlaneCorrectionDeconvMode'
p1098
aS'BackPlaneCorrectionPeakMode'
p1099
asg14
I00
sg15
I00
sg16
I53
sg17
g18
sg1097
g0
(g161
g2
Ntp1100
Rp1101
(dp1102
g14
I00
sg32
I01
sg15
I00
sg123
g0
(g67
g2
Ntp1103
Rp1104
(dp1105
g14
I00
sg32
I00
sg71
g72
sg15
I00
sbsg447
g0
(g67
g2
Ntp1106
Rp1107
(dp1108
g14
I00
sg32
I01
sg71
S'SiStripLatencyRcd'
p1109
sg15
I00
sbsg11
(lp1110
g447
ag123
asbsg1099
g0
(g161
g2
Ntp1111
Rp1112
(dp1113
g14
I00
sg32
I01
sg15
I00
sg123
g0
(g67
g2
Ntp1114
Rp1115
(dp1116
g14
I00
sg32
I00
sg71
S'peak'
p1117
sg15
I00
sbsg447
g0
(g67
g2
Ntp1118
Rp1119
(dp1120
g14
I00
sg32
I01
sg71
S'SiStripBackPlaneCorrectionRcd'
p1121
sg15
I00
sbsg11
(lp1122
g447
ag123
asbsg34
g1092
sg1098
g0
(g161
g2
Ntp1123
Rp1124
(dp1125
g14
I00
sg32
I01
sg15
I00
sg123
g0
(g67
g2
Ntp1126
Rp1127
(dp1128
g14
I00
sg32
I00
sg71
S'deconvolution'
p1129
sg15
I00
sbsg447
g0
(g67
g2
Ntp1130
Rp1131
(dp1132
g14
I00
sg32
I01
sg71
g1121
sg15
I00
sbsg11
(lp1133
g447
ag123
asbsg35
S'SiStripBackPlaneCorrectionDepESProducer'
p1134
sbsS'analyzer'
p1135
g0
(cFWCore.ParameterSet.Modules
EDAnalyzer
p1136
g2
Ntp1137
Rp1138
(dp1139
g11
(lp1140
S'beamSpotSrc'
p1141
aS'jets2'
p1142
aS'packedCandSrc'
p1143
aS'lostTracksSrc'
p1144
aS'vertexSrc'
p1145
aS'doTrack'
p1146
aS'trackPtMin'
p1147
asg14
I00
sg1141
g0
(g73
g2
Ntp1148
Rp1149
(dp1150
g14
I00
sg32
I00
sg15
I00
sg77
S'offlineBeamSpot'
p1151
sg80
g72
sg79
g72
sbsg1142
g0
(g73
g2
Ntp1152
Rp1153
(dp1154
g14
I00
sg32
I01
sg15
I00
sg77
S'slimmedJetsPuppi'
p1155
sg80
g72
sg79
g72
sbsg15
I00
sg16
I43
sg17
g65
sg1147
g0
(g846
g2
Ntp1156
Rp1157
(dp1158
g14
I00
sg32
I00
sg71
F0.01
sg15
I00
sbsg1145
g0
(g73
g2
Ntp1159
Rp1160
(dp1161
g14
I00
sg32
I01
sg15
I00
sg77
S'offlineSlimmedPrimaryVertices'
p1162
sg80
g72
sg79
g72
sbsg1146
g0
(g82
g2
Ntp1163
Rp1164
(dp1165
g14
I00
sg32
I00
sg71
I01
sg15
I00
sbsg34
g1135
sg1144
g0
(g73
g2
Ntp1166
Rp1167
(dp1168
g14
I00
sg32
I01
sg15
I00
sg77
S'lostTracks'
p1169
sg80
g72
sg79
g72
sbsg35
S'TrackAnalyzer'
p1170
sg1143
g0
(g73
g2
Ntp1171
Rp1172
(dp1173
g14
I00
sg32
I01
sg15
I00
sg77
S'packedPFCandidates'
p1174
sg80
g72
sg79
g72
sbsbsS'_Process__esprefers'
p1175
(dp1176
S'es_prefer_hcalHardcode'
p1177
g0
(cFWCore.ParameterSet.Modules
ESPrefer
p1178
g2
Ntp1179
Rp1180
(dp1181
g11
(lp1182
sg14
I00
sg15
I00
sS'_targetLabel'
p1183
S'es_hardcode'
p1184
sg16
I89
sg17
g18
sg34
g1177
sg35
S'HcalHardcodeCalibrations'
p1185
sbssS'_Process__isStrict'
p1186
I00
sS'HepPDTESSource'
p1187
g0
(g473
g2
Ntp1188
Rp1189
(dp1190
g11
(lp1191
S'pdtFileName'
p1192
asg14
I00
sg1192
g0
(cFWCore.ParameterSet.Types
FileInPath
p1193
g2
Ntp1194
Rp1195
(dp1196
g14
I00
sg32
I01
sg71
S'SimGeneral/HepPDTESSource/data/pythiaparticle.tbl'
p1197
sg15
I00
sbsg15
I00
sg16
I4
sg17
S'/cvmfs/cms.cern.ch/slc7_amd64_gcc700/cms/cmssw-patch/CMSSW_10_3_3_patch1/python/SimGeneral/HepPDTESSource/pythiapdt_cfi.py'
p1198
sg34
g1187
sg35
g1187
sbsS'_Process__outputmodules'
p1199
(dp1200
sS'_Process__analyzers'
p1201
(dp1202
g1135
g1138
ssS'idealForDigiTrackerGeometry'
p1203
g0
(g7
g2
Ntp1204
Rp1205
(dp1206
g11
(lp1207
g150
ag1043
ag421
ag1044
asg14
I00
sg150
g0
(g67
g2
Ntp1208
Rp1209
(dp1210
g14
I00
sg32
I01
sg71
S'idealForDigi'
p1211
sg15
I01
sbsg15
I01
sg1044
g0
(g67
g2
Ntp1212
Rp1213
(dp1214
g14
I00
sg32
I01
sg71
S'fakeForIdeal'
p1215
sg15
I01
sbsg17
S'/cvmfs/cms.cern.ch/slc7_amd64_gcc700/cms/cmssw-patch/CMSSW_10_3_3_patch1/python/Geometry/TrackerGeometryBuilder/idealForDigiTrackerGeometryDB_cff.py'
p1216
sg16
I8
sg34
g1203
sg1043
g0
(g82
g2
Ntp1217
Rp1218
(dp1219
g14
I00
sg32
I01
sg71
I00
sg15
I00
sbsg421
g0
(g82
g2
Ntp1220
Rp1221
(dp1222
g14
I00
sg32
I01
sg71
I00
sg15
I01
sbsg35
g1057
sbsS'_Process__looper'
p1223
NsS'_Process__tasks'
p1224
(dp1225
sS'_Process__paths'
p1226
g0
(g549
g550
(dp1227
S'runAnalyzer'
p1228
g0
(cFWCore.ParameterSet.SequenceTypes
Path
p1229
g2
Ntp1230
Rp1231
(dp1232
g14
I00
sg43
g0
(g44
g2
Ntp1233
Rp1234
(dp1235
g48
(lp1236
g41
ag1138
asbsg34
g1228
sg15
I00
sg90
g0
(g91
g2
Ntp1237
Rp1238
(dp1239
g95
(dp1240
sg97
(lp1241
Nag1241
ag1241
asbsbstp1242
Rp1243
(dp1244
g555
(lp1245
g1228
asbsS'MuonNumberingInitialization'
p1246
g0
(g7
g2
Ntp1247
Rp1248
(dp1249
g11
(lp1250
sg14
I00
sg15
I00
sg16
I53
sg17
g18
sg34
g1246
sg35
g1246
sbsS'DTGeometryESModule'
p1251
g0
(g7
g2
Ntp1252
Rp1253
(dp1254
g11
(lp1255
g150
ag1043
ag421
ag1044
asg14
I00
sg150
g0
(g67
g2
Ntp1256
Rp1257
(dp1258
g14
I00
sg32
I01
sg71
g72
sg15
I00
sbsg15
I00
sg1044
g0
(g67
g2
Ntp1259
Rp1260
(dp1261
g14
I00
sg32
I01
sg71
g72
sg15
I00
sbsg17
g18
sg16
I53
sg34
g1251
sg1043
g0
(g82
g2
Ntp1262
Rp1263
(dp1264
g14
I00
sg32
I01
sg71
I00
sg15
I00
sbsg421
g0
(g82
g2
Ntp1265
Rp1266
(dp1267
g14
I00
sg32
I01
sg71
I01
sg15
I00
sbsg35
g1251
sbsS'VolumeBasedMagneticFieldESProducer'
p1268
g0
(g7
g2
Ntp1269
Rp1270
(dp1271
g11
(lp1272
S'valueOverride'
p1273
aS'debugBuilder'
p1274
ag123
asg14
I00
sg1273
g0
(g518
g2
Ntp1275
Rp1276
(dp1277
g14
I00
sg32
I01
sg71
I18268
sg15
I01
sbsg16
I53
sg17
g18
sg123
g0
(g67
g2
Ntp1278
Rp1279
(dp1280
g14
I00
sg32
I00
sg71
g72
sg15
I00
sbsg1274
g0
(g82
g2
Ntp1281
Rp1282
(dp1283
g14
I00
sg32
I00
sg71
I00
sg15
I00
sbsg34
g1268
sg35
S'VolumeBasedMagneticFieldESProducerFromDB'
p1284
sg15
I01
sbsS'CaloTopologyBuilder'
p1285
g0
(g7
g2
Ntp1286
Rp1287
(dp1288
g11
(lp1289
sg14
I00
sg15
I00
sg16
I53
sg17
g18
sg34
g1285
sg35
g1285
sbsS'SiStripRecHitMatcherESProducer'
p1290
g0
(g7
g2
Ntp1291
Rp1292
(dp1293
g11
(lp1294
S'PreFilter'
p1295
aS'ComponentName'
p1296
aS'NSigmaInside'
p1297
asg14
I00
sg15
I00
sg17
g18
sg1296
g0
(g67
g2
Ntp1298
Rp1299
(dp1300
g14
I00
sg32
I01
sg71
S'StandardMatcher'
p1301
sg15
I00
sbsg1295
g0
(g82
g2
Ntp1302
Rp1303
(dp1304
g14
I00
sg32
I01
sg71
I00
sg15
I00
sbsg16
I53
sg1297
g0
(g846
g2
Ntp1305
Rp1306
(dp1307
g14
I00
sg32
I01
sg71
F3.0
sg15
I00
sbsg34
g1290
sg35
g1290
sbsS'_Process__psets'
p1308
(dp1309
S'maxEvents'
p1310
g0
(g161
g2
Ntp1311
Rp1312
(dp1313
g14
I00
sg32
I00
sg15
I00
sg11
(lp1314
S'input'
p1315
asg34
g1310
sg1315
g0
(g518
g2
Ntp1316
Rp1317
(dp1318
g14
I00
sg32
I00
sg71
I-1
sg15
I00
sbsbsg1012
g1014
ssS'_Process__essources'
p1319
(dp1320
g1187
g1189
sg1184
g0
(g473
g2
Ntp1321
Rp1322
(dp1323
g14
I00
sg16
I172
sS'useHEUpgrade'
p1324
g0
(g82
g2
Ntp1325
Rp1326
(dp1327
g14
I00
sg32
I01
sg71
I00
sg15
I00
sbsS'HBRecalibration'
p1328
g0
(g82
g2
Ntp1329
Rp1330
(dp1331
g14
I00
sg32
I01
sg71
I00
sg15
I00
sbsS'useLayer0Weight'
p1332
g0
(g82
g2
Ntp1333
Rp1334
(dp1335
g14
I00
sg32
I01
sg71
I00
sg15
I00
sbsS'HEmeanenergies'
p1336
g0
(g1193
g2
Ntp1337
Rp1338
(dp1339
g14
I00
sg32
I01
sg71
S'CalibCalorimetry/HcalPlugins/data/meanenergiesHE.txt'
p1340
sg15
I00
sbsg1012
g1014
sS'heUpgrade'
p1341
g0
(g161
g2
Ntp1342
Rp1343
(dp1344
g14
I00
sg32
I01
sS'qieType'
p1345
g0
(g518
g2
Ntp1346
Rp1347
(dp1348
g14
I00
sg32
I01
sg71
I2
sg15
I00
sbsg15
I00
sS'pedestalWidth'
p1349
g0
(g846
g2
Ntp1350
Rp1351
(dp1352
g14
I00
sg32
I01
sg71
F1.5
sg15
I00
sbsS'recoShape'
p1353
g0
(g518
g2
Ntp1354
Rp1355
(dp1356
g14
I00
sg32
I01
sg71
I206
sg15
I00
sbsS'zsThreshold'
p1357
g0
(g518
g2
Ntp1358
Rp1359
(dp1360
g14
I00
sg32
I01
sg71
I16
sg15
I00
sbsS'darkCurrent'
p1361
g0
(g1017
g20
(lp1362
F0.01
aF0.015
atp1363
Rp1364
(dp1365
g14
I00
sg32
I01
sg15
I00
sbsS'qieOffset'
p1366
g0
(g1017
g20
(lp1367
F0.0
aF0.0
aF0.0
aF0.0
atp1368
Rp1369
(dp1370
g14
I00
sg32
I01
sg15
I00
sbsS'qieSlope'
p1371
g0
(g1017
g20
(lp1372
F0.05376
aF0.05376
aF0.05376
aF0.05376
atp1373
Rp1374
(dp1375
g14
I00
sg32
I01
sg15
I00
sbsS'radiationDamage'
p1376
g0
(g161
g2
Ntp1377
Rp1378
(dp1379
g14
I00
sg32
I01
sS'temperatureNew'
p1380
g0
(g846
g2
Ntp1381
Rp1382
(dp1383
g14
I00
sg32
I01
sg71
I5
sg15
I00
sbsg15
I00
sS'depVsNeutrons'
p1384
g0
(g1017
g20
(lp1385
F5.543e-10
aF8.012e-10
atp1386
Rp1387
(dp1388
g14
I00
sg32
I01
sg15
I00
sbsS'temperatureBase'
p1389
g0
(g846
g2
Ntp1390
Rp1391
(dp1392
g14
I00
sg32
I01
sg71
I20
sg15
I00
sbsS'depVsTemp'
p1393
g0
(g846
g2
Ntp1394
Rp1395
(dp1396
g14
I00
sg32
I01
sg71
F0.0631
sg15
I00
sbsS'intlumiOffset'
p1397
g0
(g846
g2
Ntp1398
Rp1399
(dp1400
g14
I00
sg32
I01
sg71
I75
sg15
I00
sbsg11
(lp1401
g1380
ag1384
ag1389
ag1393
ag1397
aS'intlumiToNeutrons'
p1402
asg1402
g0
(g846
g2
Ntp1403
Rp1404
(dp1405
g14
I00
sg32
I01
sg71
F29200000.0
sg15
I00
sbsbsS'doRadiationDamage'
p1406
g0
(g82
g2
Ntp1407
Rp1408
(dp1409
g14
I00
sg32
I01
sg71
I01
sg15
I00
sbsg11
(lp1410
g1345
ag1349
ag1353
ag1357
aS'photoelectronsToAnalog'
p1411
ag1366
ag1371
ag1376
ag1406
ag1361
aS'pedestal'
p1412
aS'mcShape'
p1413
aS'gainWidth'
p1414
aS'gain'
p1415
asg1411
g0
(g846
g2
Ntp1416
Rp1417
(dp1418
g14
I00
sg32
I01
sg71
F40.0
sg15
I00
sbsg1412
g0
(g846
g2
Ntp1419
Rp1420
(dp1421
g14
I00
sg32
I01
sg71
F17.3
sg15
I00
sbsg1413
g0
(g518
g2
Ntp1422
Rp1423
(dp1424
g14
I00
sg32
I01
sg71
I206
sg15
I00
sbsg1414
g0
(g1017
g20
(lp1425
I0
atp1426
Rp1427
(dp1428
g14
I00
sg32
I01
sg15
I00
sbsg1415
g0
(g1017
g20
(lp1429
F0.0006252
atp1430
Rp1431
(dp1432
g14
I00
sg32
I01
sg15
I00
sbsbsg11
(lp1433
g484
ag1328
ag1332
ag1336
ag1012
ag1341
aS'useIeta18depth1'
p1434
aS'killHE'
p1435
aS'useHBUpgrade'
p1436
aS'hbUpgrade'
p1437
aS'testHEPlan1'
p1438
aS'iLumi'
p1439
aS'testHFQIE10'
p1440
aS'HBmeanenergies'
p1441
ag1324
aS'GainWidthsForTrigPrims'
p1442
aS'HBreCalibCutoff'
p1443
aS'HFRecalibration'
p1444
aS'ho'
p1445
aS'hb'
p1446
aS'hf'
p1447
aS'he'
p1448
aS'HERecalibration'
p1449
aS'useHFUpgrade'
p1450
aS'HEreCalibCutoff'
p1451
aS'SiPMCharacteristics'
p1452
aS'useHOUpgrade'
p1453
aS'hfUpgrade'
p1454
asg17
S'/cvmfs/cms.cern.ch/slc7_amd64_gcc700/cms/cmssw-patch/CMSSW_10_3_3_patch1/python/CalibCalorimetry/HcalPlugins/Hcal_Conditions_forGlobalTag_cff.py'
p1455
sg1434
g0
(g82
g2
Ntp1456
Rp1457
(dp1458
g14
I00
sg32
I01
sg71
I01
sg15
I00
sbsg1435
g0
(g82
g2
Ntp1459
Rp1460
(dp1461
g14
I00
sg32
I01
sg71
I00
sg15
I00
sbsg1436
g0
(g82
g2
Ntp1462
Rp1463
(dp1464
g14
I00
sg32
I01
sg71
I00
sg15
I00
sbsg1437
g0
(g161
g2
Ntp1465
Rp1466
(dp1467
g14
I00
sg32
I01
sg1345
g0
(g518
g2
Ntp1468
Rp1469
(dp1470
g14
I00
sg32
I01
sg71
I2
sg15
I00
sbsg15
I00
sg1349
g0
(g846
g2
Ntp1471
Rp1472
(dp1473
g14
I00
sg32
I01
sg71
F1.5
sg15
I00
sbsg1353
g0
(g518
g2
Ntp1474
Rp1475
(dp1476
g14
I00
sg32
I01
sg71
I206
sg15
I00
sbsg1357
g0
(g518
g2
Ntp1477
Rp1478
(dp1479
g14
I00
sg32
I01
sg71
I16
sg15
I00
sbsg1361
g0
(g1017
g20
(lp1480
F0.01
aF0.015
atp1481
Rp1482
(dp1483
g14
I00
sg32
I01
sg15
I00
sbsg1366
g0
(g1017
g20
(lp1484
F0.0
aF0.0
aF0.0
aF0.0
atp1485
Rp1486
(dp1487
g14
I00
sg32
I01
sg15
I00
sbsg1371
g0
(g1017
g20
(lp1488
F0.05376
aF0.05376
aF0.05376
aF0.05376
atp1489
Rp1490
(dp1491
g14
I00
sg32
I01
sg15
I00
sbsg1376
g0
(g161
g2
Ntp1492
Rp1493
(dp1494
g14
I00
sg32
I01
sg1380
g0
(g846
g2
Ntp1495
Rp1496
(dp1497
g14
I00
sg32
I01
sg71
I-5
sg15
I00
sbsg15
I00
sg1384
g0
(g1017
g20
(lp1498
F5.543e-10
aF8.012e-10
atp1499
Rp1500
(dp1501
g14
I00
sg32
I01
sg15
I00
sbsg1389
g0
(g846
g2
Ntp1502
Rp1503
(dp1504
g14
I00
sg32
I01
sg71
I20
sg15
I00
sbsg1393
g0
(g846
g2
Ntp1505
Rp1506
(dp1507
g14
I00
sg32
I01
sg71
F0.0631
sg15
I00
sbsg1397
g0
(g846
g2
Ntp1508
Rp1509
(dp1510
g14
I00
sg32
I01
sg71
I150
sg15
I00
sbsg11
(lp1511
g1380
ag1384
ag1389
ag1393
ag1397
ag1402
asg1402
g0
(g846
g2
Ntp1512
Rp1513
(dp1514
g14
I00
sg32
I01
sg71
F367000000.0
sg15
I00
sbsbsg1406
g0
(g82
g2
Ntp1515
Rp1516
(dp1517
g14
I00
sg32
I01
sg71
I01
sg15
I00
sbsg11
(lp1518
g1345
ag1349
ag1353
ag1357
ag1411
ag1366
ag1371
ag1376
ag1406
ag1361
ag1412
ag1413
ag1414
ag1415
asg1411
g0
(g846
g2
Ntp1519
Rp1520
(dp1521
g14
I00
sg32
I01
sg71
F40.0
sg15
I00
sbsg1412
g0
(g846
g2
Ntp1522
Rp1523
(dp1524
g14
I00
sg32
I01
sg71
F17.3
sg15
I00
sbsg1413
g0
(g518
g2
Ntp1525
Rp1526
(dp1527
g14
I00
sg32
I01
sg71
I206
sg15
I00
sbsg1414
g0
(g1017
g20
(lp1528
I0
atp1529
Rp1530
(dp1531
g14
I00
sg32
I01
sg15
I00
sbsg1415
g0
(g1017
g20
(lp1532
F0.0006252
atp1533
Rp1534
(dp1535
g14
I00
sg32
I01
sg15
I00
sbsbsg35
g1185
sg1438
g0
(g82
g2
Ntp1536
Rp1537
(dp1538
g14
I00
sg32
I01
sg71
I00
sg15
I00
sbsg1439
g0
(g846
g2
Ntp1539
Rp1540
(dp1541
g14
I00
sg32
I01
sg71
F-1.0
sg15
I00
sbsg1440
g0
(g82
g2
Ntp1542
Rp1543
(dp1544
g14
I00
sg32
I01
sg71
I00
sg15
I00
sbsg1441
g0
(g1193
g2
Ntp1545
Rp1546
(dp1547
g14
I00
sg32
I01
sg71
S'CalibCalorimetry/HcalPlugins/data/meanenergiesHB.txt'
p1548
sg15
I00
sbsg484
g0
(g19
g20
(lp1549
S'GainWidths'
p1550
atp1551
Rp1552
(dp1553
g14
I00
sg32
I00
sg15
I00
sg33
I1
sbsg1442
g0
(g82
g2
Ntp1554
Rp1555
(dp1556
g14
I00
sg32
I01
sg71
I00
sg15
I00
sbsg1443
g0
(g846
g2
Ntp1557
Rp1558
(dp1559
g14
I00
sg32
I01
sg71
F20.0
sg15
I00
sbsg1444
g0
(g82
g2
Ntp1560
Rp1561
(dp1562
g14
I00
sg32
I01
sg71
I00
sg15
I00
sbsg1445
g0
(g161
g2
Ntp1563
Rp1564
(dp1565
g14
I00
sg32
I01
sg1345
g0
(g518
g2
Ntp1566
Rp1567
(dp1568
g14
I00
sg32
I01
sg71
I0
sg15
I00
sbsg15
I00
sg1349
g0
(g846
g2
Ntp1569
Rp1570
(dp1571
g14
I00
sg32
I01
sg71
F0.6285
sg15
I00
sbsg1353
g0
(g518
g2
Ntp1572
Rp1573
(dp1574
g14
I00
sg32
I01
sg71
I201
sg15
I00
sbsg1357
g0
(g518
g2
Ntp1575
Rp1576
(dp1577
g14
I00
sg32
I01
sg71
I24
sg15
I00
sbsg1361
g0
(g1017
g20
(lp1578
F0.0
atp1579
Rp1580
(dp1581
g14
I00
sg32
I01
sg15
I00
sbsg1366
g0
(g1017
g20
(lp1582
F-0.44
aF1.4
aF7.1
aF38.5
atp1583
Rp1584
(dp1585
g14
I00
sg32
I01
sg15
I00
sbsg1371
g0
(g1017
g20
(lp1586
F0.907
aF0.915
aF0.92
aF0.921
atp1587
Rp1588
(dp1589
g14
I00
sg32
I01
sg15
I00
sbsg1415
g0
(g1017
g20
(lp1590
F0.006
aF0.0087
atp1591
Rp1592
(dp1593
g14
I00
sg32
I01
sg15
I00
sbsg1406
g0
(g82
g2
Ntp1594
Rp1595
(dp1596
g14
I00
sg32
I01
sg71
I00
sg15
I00
sbsg11
(lp1597
g1345
ag1349
ag1353
ag1357
ag1411
ag1366
ag1371
ag1415
ag1406
ag1361
ag1412
ag1413
ag1414
asg1411
g0
(g846
g2
Ntp1598
Rp1599
(dp1600
g14
I00
sg32
I01
sg71
F4.0
sg15
I00
sbsg1412
g0
(g846
g2
Ntp1601
Rp1602
(dp1603
g14
I00
sg32
I01
sg71
F12.06
sg15
I00
sbsg1413
g0
(g518
g2
Ntp1604
Rp1605
(dp1606
g14
I00
sg32
I01
sg71
I201
sg15
I00
sbsg1414
g0
(g1017
g20
(lp1607
F0.0
aF0.0
atp1608
Rp1609
(dp1610
g14
I00
sg32
I01
sg15
I00
sbsbsg1446
g0
(g161
g2
Ntp1611
Rp1612
(dp1613
g14
I00
sg32
I01
sg1345
g0
(g518
g2
Ntp1614
Rp1615
(dp1616
g14
I00
sg32
I01
sg71
I0
sg15
I00
sbsg15
I00
sg1349
g0
(g846
g2
Ntp1617
Rp1618
(dp1619
g14
I00
sg32
I01
sg71
F0.809
sg15
I00
sbsg1353
g0
(g518
g2
Ntp1620
Rp1621
(dp1622
g14
I00
sg32
I01
sg71
I105
sg15
I00
sbsg1357
g0
(g518
g2
Ntp1623
Rp1624
(dp1625
g14
I00
sg32
I01
sg71
I8
sg15
I00
sbsg1361
g0
(g1017
g20
(lp1626
F0.0
atp1627
Rp1628
(dp1629
g14
I00
sg32
I01
sg15
I00
sbsg1366
g0
(g1017
g20
(lp1630
F-0.49
aF1.8
aF7.2
aF37.9
atp1631
Rp1632
(dp1633
g14
I00
sg32
I01
sg15
I00
sbsg1371
g0
(g1017
g20
(lp1634
F0.912
aF0.917
aF0.922
aF0.923
atp1635
Rp1636
(dp1637
g14
I00
sg32
I01
sg15
I00
sbsg1415
g0
(g1017
g20
(lp1638
F0.19
atp1639
Rp1640
(dp1641
g14
I00
sg32
I01
sg15
I00
sbsg1406
g0
(g82
g2
Ntp1642
Rp1643
(dp1644
g14
I00
sg32
I01
sg71
I00
sg15
I00
sbsg11
(lp1645
g1345
ag1349
ag1353
ag1357
ag1411
ag1366
ag1371
ag1415
ag1406
ag1361
ag1412
ag1413
ag1414
asg1411
g0
(g846
g2
Ntp1646
Rp1647
(dp1648
g14
I00
sg32
I01
sg71
F0.3305
sg15
I00
sbsg1412
g0
(g846
g2
Ntp1649
Rp1650
(dp1651
g14
I00
sg32
I01
sg71
F3.285
sg15
I00
sbsg1413
g0
(g518
g2
Ntp1652
Rp1653
(dp1654
g14
I00
sg32
I01
sg71
I125
sg15
I00
sbsg1414
g0
(g1017
g20
(lp1655
F0.0
atp1656
Rp1657
(dp1658
g14
I00
sg32
I01
sg15
I00
sbsbsg1447
g0
(g161
g2
Ntp1659
Rp1660
(dp1661
g14
I00
sg32
I01
sg1345
g0
(g518
g2
Ntp1662
Rp1663
(dp1664
g14
I00
sg32
I01
sg71
I0
sg15
I00
sbsg15
I00
sg1349
g0
(g846
g2
Ntp1665
Rp1666
(dp1667
g14
I00
sg32
I01
sg71
F2.516
sg15
I00
sbsg1353
g0
(g518
g2
Ntp1668
Rp1669
(dp1670
g14
I00
sg32
I01
sg71
I301
sg15
I00
sbsg1357
g0
(g518
g2
Ntp1671
Rp1672
(dp1673
g14
I00
sg32
I01
sg71
I-9999
sg15
I00
sbsg1361
g0
(g1017
g20
(lp1674
F0.0
atp1675
Rp1676
(dp1677
g14
I00
sg32
I01
sg15
I00
sbsg1366
g0
(g1017
g20
(lp1678
F-0.87
aF1.4
aF7.8
aF-29.6
atp1679
Rp1680
(dp1681
g14
I00
sg32
I01
sg15
I00
sbsg1371
g0
(g1017
g20
(lp1682
F0.359
aF0.358
aF0.36
aF0.367
atp1683
Rp1684
(dp1685
g14
I00
sg32
I01
sg15
I00
sbsg1415
g0
(g1017
g20
(lp1686
F0.14
aF0.135
atp1687
Rp1688
(dp1689
g14
I00
sg32
I01
sg15
I00
sbsg1406
g0
(g82
g2
Ntp1690
Rp1691
(dp1692
g14
I00
sg32
I01
sg71
I00
sg15
I00
sbsg11
(lp1693
g1345
ag1349
ag1353
ag1357
ag1411
ag1366
ag1371
ag1415
ag1406
ag1361
ag1412
ag1413
ag1414
asg1411
g0
(g846
g2
Ntp1694
Rp1695
(dp1696
g14
I00
sg32
I01
sg71
F0.0
sg15
I00
sbsg1412
g0
(g846
g2
Ntp1697
Rp1698
(dp1699
g14
I00
sg32
I01
sg71
F9.354
sg15
I00
sbsg1413
g0
(g518
g2
Ntp1700
Rp1701
(dp1702
g14
I00
sg32
I01
sg71
I301
sg15
I00
sbsg1414
g0
(g1017
g20
(lp1703
F0.0
aF0.0
atp1704
Rp1705
(dp1706
g14
I00
sg32
I01
sg15
I00
sbsbsg1448
g0
(g161
g2
Ntp1707
Rp1708
(dp1709
g14
I00
sg32
I01
sg1345
g0
(g518
g2
Ntp1710
Rp1711
(dp1712
g14
I00
sg32
I01
sg71
I0
sg15
I00
sbsg15
I00
sg1349
g0
(g846
g2
Ntp1713
Rp1714
(dp1715
g14
I00
sg32
I01
sg71
F0.9698
sg15
I00
sbsg1353
g0
(g518
g2
Ntp1716
Rp1717
(dp1718
g14
I00
sg32
I01
sg71
I105
sg15
I00
sbsg1357
g0
(g518
g2
Ntp1719
Rp1720
(dp1721
g14
I00
sg32
I01
sg71
I9
sg15
I00
sbsg1361
g0
(g1017
g20
(lp1722
F0.0
atp1723
Rp1724
(dp1725
g14
I00
sg32
I01
sg15
I00
sbsg1366
g0
(g1017
g20
(lp1726
F-0.38
aF2.0
aF7.6
aF39.6
atp1727
Rp1728
(dp1729
g14
I00
sg32
I01
sg15
I00
sbsg1371
g0
(g1017
g20
(lp1730
F0.912
aF0.916
aF0.92
aF0.922
atp1731
Rp1732
(dp1733
g14
I00
sg32
I01
sg15
I00
sbsg1415
g0
(g1017
g20
(lp1734
F0.23
atp1735
Rp1736
(dp1737
g14
I00
sg32
I01
sg15
I00
sbsg1406
g0
(g82
g2
Ntp1738
Rp1739
(dp1740
g14
I00
sg32
I01
sg71
I00
sg15
I00
sbsg11
(lp1741
g1345
ag1349
ag1353
ag1357
ag1411
ag1366
ag1371
ag1415
ag1406
ag1361
ag1412
ag1413
ag1414
asg1411
g0
(g846
g2
Ntp1742
Rp1743
(dp1744
g14
I00
sg32
I01
sg71
F0.3305
sg15
I00
sbsg1412
g0
(g846
g2
Ntp1745
Rp1746
(dp1747
g14
I00
sg32
I01
sg71
F3.163
sg15
I00
sbsg1413
g0
(g518
g2
Ntp1748
Rp1749
(dp1750
g14
I00
sg32
I01
sg71
I125
sg15
I00
sbsg1414
g0
(g1017
g20
(lp1751
I0
atp1752
Rp1753
(dp1754
g14
I00
sg32
I01
sg15
I00
sbsbsg15
I00
sg1449
g0
(g82
g2
Ntp1755
Rp1756
(dp1757
g14
I00
sg32
I01
sg71
I00
sg15
I00
sbsg1450
g0
(g82
g2
Ntp1758
Rp1759
(dp1760
g14
I00
sg32
I01
sg71
I00
sg15
I00
sbsg1451
g0
(g846
g2
Ntp1761
Rp1762
(dp1763
g14
I00
sg32
I01
sg71
F20.0
sg15
I00
sbsg1452
g0
(g442
g20
(lp1764
g0
(g161
g2
Ntp1765
Rp1766
(dp1767
g14
I00
sg32
I01
sg15
I00
sS'crosstalk'
p1768
g0
(g846
g2
Ntp1769
Rp1770
(dp1771
g14
I00
sg32
I01
sg71
F0.0
sg15
I00
sbsS'nonlin1'
p1772
g0
(g846
g2
Ntp1773
Rp1774
(dp1775
g14
I00
sg32
I01
sg71
F1.0
sg15
I00
sbsS'nonlin3'
p1776
g0
(g846
g2
Ntp1777
Rp1778
(dp1779
g14
I00
sg32
I01
sg71
F0.0
sg15
I00
sbsS'nonlin2'
p1780
g0
(g846
g2
Ntp1781
Rp1782
(dp1783
g14
I00
sg32
I01
sg71
F0.0
sg15
I00
sbsg11
(lp1784
g1772
ag1776
ag1780
aS'pixels'
p1785
ag1768
asg1785
g0
(g518
g2
Ntp1786
Rp1787
(dp1788
g14
I00
sg32
I01
sg71
I36000
sg15
I00
sbsbag0
(g161
g2
Ntp1789
Rp1790
(dp1791
g14
I00
sg32
I01
sg15
I00
sg1768
g0
(g846
g2
Ntp1792
Rp1793
(dp1794
g14
I00
sg32
I01
sg71
F0.0
sg15
I00
sbsg1772
g0
(g846
g2
Ntp1795
Rp1796
(dp1797
g14
I00
sg32
I01
sg71
F1.0
sg15
I00
sbsg1776
g0
(g846
g2
Ntp1798
Rp1799
(dp1800
g14
I00
sg32
I01
sg71
F0.0
sg15
I00
sbsg1780
g0
(g846
g2
Ntp1801
Rp1802
(dp1803
g14
I00
sg32
I01
sg71
F0.0
sg15
I00
sbsg11
(lp1804
g1772
ag1776
ag1780
ag1785
ag1768
asg1785
g0
(g518
g2
Ntp1805
Rp1806
(dp1807
g14
I00
sg32
I01
sg71
I2500
sg15
I00
sbsbag0
(g161
g2
Ntp1808
Rp1809
(dp1810
g14
I00
sg32
I01
sg15
I00
sg1768
g0
(g846
g2
Ntp1811
Rp1812
(dp1813
g14
I00
sg32
I01
sg71
F0.17
sg15
I00
sbsg1772
g0
(g846
g2
Ntp1814
Rp1815
(dp1816
g14
I00
sg32
I01
sg71
F1.00985
sg15
I00
sbsg1776
g0
(g846
g2
Ntp1817
Rp1818
(dp1819
g14
I00
sg32
I01
sg71
F2.86282e-10
sg15
I00
sbsg1780
g0
(g846
g2
Ntp1820
Rp1821
(dp1822
g14
I00
sg32
I01
sg71
F7.84089e-06
sg15
I00
sbsg11
(lp1823
g1772
ag1776
ag1780
ag1785
ag1768
asg1785
g0
(g518
g2
Ntp1824
Rp1825
(dp1826
g14
I00
sg32
I01
sg71
I27370
sg15
I00
sbsbag0
(g161
g2
Ntp1827
Rp1828
(dp1829
g14
I00
sg32
I01
sg15
I00
sg1768
g0
(g846
g2
Ntp1830
Rp1831
(dp1832
g14
I00
sg32
I01
sg71
F0.196
sg15
I00
sbsg1772
g0
(g846
g2
Ntp1833
Rp1834
(dp1835
g14
I00
sg32
I01
sg71
F1.00546
sg15
I00
sbsg1776
g0
(g846
g2
Ntp1836
Rp1837
(dp1838
g14
I00
sg32
I01
sg71
F1.27011e-10
sg15
I00
sbsg1780
g0
(g846
g2
Ntp1839
Rp1840
(dp1841
g14
I00
sg32
I01
sg71
F6.40239e-06
sg15
I00
sbsg11
(lp1842
g1772
ag1776
ag1780
ag1785
ag1768
asg1785
g0
(g518
g2
Ntp1843
Rp1844
(dp1845
g14
I00
sg32
I01
sg71
I38018
sg15
I00
sbsbag0
(g161
g2
Ntp1846
Rp1847
(dp1848
g14
I00
sg32
I01
sg15
I00
sg1768
g0
(g846
g2
Ntp1849
Rp1850
(dp1851
g14
I00
sg32
I01
sg71
F0.17
sg15
I00
sbsg1772
g0
(g846
g2
Ntp1852
Rp1853
(dp1854
g14
I00
sg32
I01
sg71
F1.00985
sg15
I00
sbsg1776
g0
(g846
g2
Ntp1855
Rp1856
(dp1857
g14
I00
sg32
I01
sg71
F2.86282e-10
sg15
I00
sbsg1780
g0
(g846
g2
Ntp1858
Rp1859
(dp1860
g14
I00
sg32
I01
sg71
F7.84089e-06
sg15
I00
sbsg11
(lp1861
g1772
ag1776
ag1780
ag1785
ag1768
asg1785
g0
(g518
g2
Ntp1862
Rp1863
(dp1864
g14
I00
sg32
I01
sg71
I27370
sg15
I00
sbsbag0
(g161
g2
Ntp1865
Rp1866
(dp1867
g14
I00
sg32
I01
sg15
I00
sg1768
g0
(g846
g2
Ntp1868
Rp1869
(dp1870
g14
I00
sg32
I01
sg71
F0.196
sg15
I00
sbsg1772
g0
(g846
g2
Ntp1871
Rp1872
(dp1873
g14
I00
sg32
I01
sg71
F1.00546
sg15
I00
sbsg1776
g0
(g846
g2
Ntp1874
Rp1875
(dp1876
g14
I00
sg32
I01
sg71
F1.27011e-10
sg15
I00
sbsg1780
g0
(g846
g2
Ntp1877
Rp1878
(dp1879
g14
I00
sg32
I01
sg71
F6.40239e-06
sg15
I00
sbsg11
(lp1880
g1772
ag1776
ag1780
ag1785
ag1768
asg1785
g0
(g518
g2
Ntp1881
Rp1882
(dp1883
g14
I00
sg32
I01
sg71
I38018
sg15
I00
sbsbag0
(g161
g2
Ntp1884
Rp1885
(dp1886
g14
I00
sg32
I01
sg15
I00
sg1768
g0
(g846
g2
Ntp1887
Rp1888
(dp1889
g14
I00
sg32
I01
sg71
F0.0
sg15
I00
sbsg1772
g0
(g846
g2
Ntp1890
Rp1891
(dp1892
g14
I00
sg32
I01
sg71
F1.0
sg15
I00
sbsg1776
g0
(g846
g2
Ntp1893
Rp1894
(dp1895
g14
I00
sg32
I01
sg71
F0.0
sg15
I00
sbsg1780
g0
(g846
g2
Ntp1896
Rp1897
(dp1898
g14
I00
sg32
I01
sg71
F0.0
sg15
I00
sbsg11
(lp1899
g1772
ag1776
ag1780
ag1785
ag1768
asg1785
g0
(g518
g2
Ntp1900
Rp1901
(dp1902
g14
I00
sg32
I01
sg71
I0
sg15
I00
sbsbatp1903
Rp1904
(dp1905
g14
I00
sg32
I01
sg15
I00
sg33
I1
sbsg34
g1184
sg1453
g0
(g82
g2
Ntp1906
Rp1907
(dp1908
g14
I00
sg32
I01
sg71
I01
sg15
I00
sbsg1454
g0
(g161
g2
Ntp1909
Rp1910
(dp1911
g14
I00
sg32
I01
sg1345
g0
(g518
g2
Ntp1912
Rp1913
(dp1914
g14
I00
sg32
I01
sg71
I1
sg15
I00
sbsg15
I00
sg1349
g0
(g846
g2
Ntp1915
Rp1916
(dp1917
g14
I00
sg32
I01
sg71
F3.33
sg15
I00
sbsg1353
g0
(g518
g2
Ntp1918
Rp1919
(dp1920
g14
I00
sg32
I01
sg71
I301
sg15
I00
sbsg1357
g0
(g518
g2
Ntp1921
Rp1922
(dp1923
g14
I00
sg32
I01
sg71
I-9999
sg15
I00
sbsg1361
g0
(g1017
g20
(lp1924
F0.0
atp1925
Rp1926
(dp1927
g14
I00
sg32
I01
sg15
I00
sbsg1366
g0
(g1017
g20
(lp1928
F0.0697
aF-0.7405
aF12.38
aF-671.9
atp1929
Rp1930
(dp1931
g14
I00
sg32
I01
sg15
I00
sbsg1371
g0
(g1017
g20
(lp1932
F0.297
aF0.298
aF0.298
aF0.313
atp1933
Rp1934
(dp1935
g14
I00
sg32
I01
sg15
I00
sbsg1415
g0
(g1017
g20
(lp1936
F0.14
aF0.135
atp1937
Rp1938
(dp1939
g14
I00
sg32
I01
sg15
I00
sbsg1406
g0
(g82
g2
Ntp1940
Rp1941
(dp1942
g14
I00
sg32
I01
sg71
I00
sg15
I00
sbsg11
(lp1943
g1345
ag1349
ag1353
ag1357
ag1411
ag1366
ag1371
ag1415
ag1406
ag1361
ag1412
ag1413
ag1414
asg1411
g0
(g846
g2
Ntp1944
Rp1945
(dp1946
g14
I00
sg32
I01
sg71
F0.0
sg15
I00
sbsg1412
g0
(g846
g2
Ntp1947
Rp1948
(dp1949
g14
I00
sg32
I01
sg71
F13.33
sg15
I00
sbsg1413
g0
(g518
g2
Ntp1950
Rp1951
(dp1952
g14
I00
sg32
I01
sg71
I301
sg15
I00
sbsg1414
g0
(g1017
g20
(lp1953
F0.0
aF0.0
atp1954
Rp1955
(dp1956
g14
I00
sg32
I01
sg15
I00
sbsbsbsg1058
g1060
sg472
g475
sg834
g836
ssg116
g102
sg428
g431
sg1310
g1312
sS'CSCGeometryESModule'
p1957
g0
(g7
g2
Ntp1958
Rp1959
(dp1960
g11
(lp1961
g150
aS'useDDD'
p1962
aS'debugV'
p1963
aS'useGangedStripsInME1a'
p1964
ag1044
aS'useOnlyWiresInME1a'
p1965
aS'useRealWireGeometry'
p1966
aS'useCentreTIOffsets'
p1967
ag421
asg14
I00
sg150
g0
(g67
g2
Ntp1968
Rp1969
(dp1970
g14
I00
sg32
I01
sg71
g72
sg15
I00
sbsg15
I00
sg1963
g0
(g82
g2
Ntp1971
Rp1972
(dp1973
g14
I00
sg32
I00
sg71
I00
sg15
I00
sbsg17
g18
sg1964
g0
(g82
g2
Ntp1974
Rp1975
(dp1976
g14
I00
sg32
I01
sg71
I01
sg15
I00
sbsg1044
g0
(g67
g2
Ntp1977
Rp1978
(dp1979
g14
I00
sg32
I01
sg71
g72
sg15
I00
sbsg1965
g0
(g82
g2
Ntp1980
Rp1981
(dp1982
g14
I00
sg32
I01
sg71
I00
sg15
I00
sbsg1962
g0
(g82
g2
Ntp1983
Rp1984
(dp1985
g14
I00
sg32
I01
sg71
I00
sg15
I00
sbsg16
I53
sg1967
g0
(g82
g2
Ntp1986
Rp1987
(dp1988
g14
I00
sg32
I01
sg71
I00
sg15
I00
sbsg34
g1957
sg1966
g0
(g82
g2
Ntp1989
Rp1990
(dp1991
g14
I00
sg32
I01
sg71
I01
sg15
I00
sbsg421
g0
(g82
g2
Ntp1992
Rp1993
(dp1994
g14
I00
sg32
I01
sg71
I01
sg15
I00
sbsg35
g1957
sbsS'EcalBarrelGeometryFromDBEP'
p1995
g0
(g7
g2
Ntp1996
Rp1997
(dp1998
g11
(lp1999
g421
asg14
I00
sg15
I01
sg16
I53
sg17
g18
sg34
g1995
sg421
g0
(g82
g2
Ntp2000
Rp2001
(dp2002
g14
I00
sg32
I01
sg71
I01
sg15
I01
sbsg35
g1995
sbsS'trackerNumberingGeometryDB'
p2003
g0
(g7
g2
Ntp2004
Rp2005
(dp2006
g11
(lp2007
g150
ag1043
asg14
I00
sg150
g0
(g67
g2
Ntp2008
Rp2009
(dp2010
g14
I00
sg32
I01
sg71
g72
sg15
I00
sbsg15
I00
sg16
I53
sg17
g18
sg34
g2003
sg1043
g0
(g82
g2
Ntp2011
Rp2012
(dp2013
g14
I00
sg32
I01
sg71
I00
sg15
I00
sbsg35
S'TrackerGeometricDetESModule'
p2014
sbsS'_Process__name'
p2015
S'Analysis'
p2016
sg1184
g1322
sS'_cloneToObjectDict'
p2017
(dp2018
I139758804108112
g0
(g7
g2
Ntp2019
Rp2020
(dp2021
g11
(lp2022
sg14
I00
sg15
I00
sg16
I53
sg17
g18
sg34
S'EcalElectronicsMappingBuilder'
p2023
sg35
g2023
sbsI139758795146192
g1322
sI139758804157520
g1248
sI139758794711888
g438
sI139758804108368
g1060
sI139758804075728
g564
sI139758795011344
g0
(g7
g2
Ntp2024
Rp2025
(dp2026
g11
(lp2027
sg14
I00
sg15
I00
sg16
I53
sg17
g18
sg34
S'EcalLaserCorrectionService'
p2028
sg35
g2028
sbsI139758804039184
g1959
sI139758794711120
g1292
sI139758804075856
g0
(g7
g2
Ntp2029
Rp2030
(dp2031
g11
(lp2032
g421
asg14
I00
sg15
I01
sg16
I53
sg17
g18
sg34
S'EcalPreshowerGeometryFromDBEP'
p2033
sg421
g0
(g82
g2
Ntp2034
Rp2035
(dp2036
g14
I00
sg32
I01
sg71
I01
sg15
I01
sbsg35
g2033
sbsI139758804075984
g1997
sI139758804108880
g147
sI139758804107664
g1084
sI139758804109200
g0
(g7
g2
Ntp2037
Rp2038
(dp2039
g11
(lp2040
g150
asg14
I00
sg150
g0
(g67
g2
Ntp2041
Rp2042
(dp2043
g14
I00
sg32
I01
sg71
g72
sg15
I00
sbsg15
I00
sg16
I53
sg17
g18
sg34
S'hcalDDDRecConstants'
p2044
sg35
S'HcalDDDRecConstantsESModule'
p2045
sbsI139758804076496
g0
(g7
g2
Ntp2046
Rp2047
(dp2048
g11
(lp2049
sg14
I00
sg15
I00
sg16
I53
sg17
g18
sg34
S'HcalAlignmentEP'
p2050
sg35
g2050
sbsI139758794711248
g0
(g7
g2
Ntp2051
Rp2052
(dp2053
g11
(lp2054
sg14
I00
sg15
I00
sg16
I53
sg17
g18
sg34
S'sistripconn'
p2055
sg35
S'SiStripConnectivity'
p2056
sbsI139758804109392
g1205
sI139758794746192
g41
sI139758795147408
g1180
sI139758804076816
g418
sI139758794979664
g431
sI139758795074768
g836
sI139758794832656
g1138
sI139758804040272
g1253
sI139758804041104
g1040
sI139758795188944
g0
(g7
g2
Ntp2057
Rp2058
(dp2059
g11
(lp2060
S'ComponentType'
p2061
ag1296
aS'parameters'
p2062
asg14
I00
sg15
I01
sg2062
g0
(g161
g2
Ntp2063
Rp2064
(dp2065
g14
I00
sg32
I01
sS'maxChgOneMIP'
p2066
g0
(g846
g2
Ntp2067
Rp2068
(dp2069
g14
I00
sg32
I01
sg71
F6000.0
sg15
I00
sbsS'mLC_P2'
p2070
g0
(g846
g2
Ntp2071
Rp2072
(dp2073
g14
I00
sg32
I01
sg71
F0.3
sg15
I00
sbsS'mLC_P1'
p2074
g0
(g846
g2
Ntp2075
Rp2076
(dp2077
g14
I00
sg32
I01
sg71
F0.618
sg15
I00
sbsS'mLC_P0'
p2078
g0
(g846
g2
Ntp2079
Rp2080
(dp2081
g14
I00
sg32
I01
sg71
F-0.326
sg15
I00
sbsS'useLegacyError'
p2082
g0
(g82
g2
Ntp2083
Rp2084
(dp2085
g14
I00
sg32
I01
sg71
I00
sg15
I00
sbsS'mTIB_P1'
p2086
g0
(g846
g2
Ntp2087
Rp2088
(dp2089
g14
I00
sg32
I01
sg71
F0.202
sg15
I00
sbsS'mTEC_P1'
p2090
g0
(g846
g2
Ntp2091
Rp2092
(dp2093
g14
I00
sg32
I01
sg71
F0.471
sg15
I00
sbsS'mTEC_P0'
p2094
g0
(g846
g2
Ntp2095
Rp2096
(dp2097
g14
I00
sg32
I01
sg71
F-1.885
sg15
I00
sbsS'mTOB_P0'
p2098
g0
(g846
g2
Ntp2099
Rp2100
(dp2101
g14
I00
sg32
I01
sg71
F-1.026
sg15
I00
sbsS'mTOB_P1'
p2102
g0
(g846
g2
Ntp2103
Rp2104
(dp2105
g14
I00
sg32
I01
sg71
F0.253
sg15
I00
sbsS'mTIB_P0'
p2106
g0
(g846
g2
Ntp2107
Rp2108
(dp2109
g14
I00
sg32
I01
sg71
F-0.742
sg15
I00
sbsg11
(lp2110
g2066
ag2070
ag2074
ag2078
ag2082
ag2090
ag2094
ag2098
ag2102
ag2106
ag2086
aS'mTID_P0'
p2111
aS'mTID_P1'
p2112
asg2111
g0
(g846
g2
Ntp2113
Rp2114
(dp2115
g14
I00
sg32
I01
sg71
F-1.427
sg15
I00
sbsg2112
g0
(g846
g2
Ntp2116
Rp2117
(dp2118
g14
I00
sg32
I01
sg71
F0.433
sg15
I00
sbsg15
I00
sbsg16
I4
sg1296
g0
(g67
g2
Ntp2119
Rp2120
(dp2121
g14
I00
sg32
I01
sg71
S'StripCPEfromTrackAngle'
p2122
sg15
I00
sbsg2061
g0
(g67
g2
Ntp2123
Rp2124
(dp2125
g14
I00
sg32
I01
sg71
g2122
sg15
I00
sbsg17
S'/cvmfs/cms.cern.ch/slc7_amd64_gcc700/cms/cmssw-patch/CMSSW_10_3_3_patch1/python/RecoLocalTracker/SiStripRecHitConverter/StripCPEfromTrackAngle_cfi.py'
p2126
sg34
S'StripCPEfromTrackAngleESProducer'
p2127
sg35
S'StripCPEESProducer'
p2128
sbsI139758804110096
g0
(g7
g2
Ntp2129
Rp2130
(dp2131
g11
(lp2132
g150
asg14
I00
sg150
g0
(g67
g2
Ntp2133
Rp2134
(dp2135
g14
I00
sg32
I01
sg71
g1215
sg15
I01
sbsg15
I01
sg16
I5
sg17
S'/cvmfs/cms.cern.ch/slc7_amd64_gcc700/cms/cmssw-patch/CMSSW_10_3_3_patch1/python/Alignment/CommonAlignmentProducer/fakeForIdealAlignmentProducer_cfi.py'
p2136
sg34
S'fakeForIdealAlignment'
p2137
sg35
S'FakeAlignmentProducer'
p2138
sbsI139758795012944
g475
sI139758795188496
g1094
sI139758794832784
g1231
sI139758804040656
g2005
sI139758795186896
g0
(g7
g2
Ntp2139
Rp2140
(dp2141
g11
(lp2142
S'printDebug'
p2143
ag150
aS'APVGain'
p2144
aS'AutomaticNormalization'
p2145
asg14
I00
sg150
g0
(g67
g2
Ntp2146
Rp2147
(dp2148
g14
I00
sg32
I01
sg71
g72
sg15
I00
sbsg15
I00
sg2145
g0
(g82
g2
Ntp2149
Rp2150
(dp2151
g14
I00
sg32
I01
sg71
I00
sg15
I00
sbsg16
I53
sg2143
g0
(g82
g2
Ntp2152
Rp2153
(dp2154
g14
I00
sg32
I00
sg71
I00
sg15
I00
sbsg17
g18
sg2144
g0
(g442
g20
(lp2155
g0
(g161
g2
Ntp2156
Rp2157
(dp2158
g14
I00
sg32
I01
sg15
I00
sS'Label'
p2159
g0
(g67
g2
Ntp2160
Rp2161
(dp2162
g14
I00
sg32
I00
sg71
g72
sg15
I00
sbsS'Record'
p2163
g0
(g67
g2
Ntp2164
Rp2165
(dp2166
g14
I00
sg32
I01
sg71
S'SiStripApvGainRcd'
p2167
sg15
I00
sbsS'NormalizationFactor'
p2168
g0
(g846
g2
Ntp2169
Rp2170
(dp2171
g14
I00
sg32
I00
sg71
F1.0
sg15
I00
sbsg11
(lp2172
g2163
ag2168
ag2159
asbag0
(g161
g2
Ntp2173
Rp2174
(dp2175
g14
I00
sg32
I01
sg15
I00
sg2159
g0
(g67
g2
Ntp2176
Rp2177
(dp2178
g14
I00
sg32
I00
sg71
g72
sg15
I00
sbsg2163
g0
(g67
g2
Ntp2179
Rp2180
(dp2181
g14
I00
sg32
I01
sg71
S'SiStripApvGain2Rcd'
p2182
sg15
I00
sbsg2168
g0
(g846
g2
Ntp2183
Rp2184
(dp2185
g14
I00
sg32
I00
sg71
F1.0
sg15
I00
sbsg11
(lp2186
g2163
ag2168
ag2159
asbatp2187
Rp2188
(dp2189
g14
I00
sg32
I01
sg15
I00
sg33
I1
sbsg34
S'siStripGainESProducer'
p2190
sg35
S'SiStripGainESProducer'
p2191
sbsI139758804110352
g0
(g7
g2
Ntp2192
Rp2193
(dp2194
g11
(lp2195
g150
ag1962
ag1963
ag1964
ag1044
ag1965
ag1966
ag1967
ag421
asg14
I00
sg150
g0
(g67
g2
Ntp2196
Rp2197
(dp2198
g14
I00
sg32
I01
sg71
g1211
sg15
I01
sbsg15
I01
sg1963
g0
(g82
g2
Ntp2199
Rp2200
(dp2201
g14
I00
sg32
I00
sg71
I00
sg15
I00
sbsg17
S'/cvmfs/cms.cern.ch/slc7_amd64_gcc700/cms/cmssw-patch/CMSSW_10_3_3_patch1/python/Geometry/CSCGeometryBuilder/idealForDigiCscGeometryDB_cff.py'
p2202
sg1964
g0
(g82
g2
Ntp2203
Rp2204
(dp2205
g14
I00
sg32
I01
sg71
I01
sg15
I00
sbsg1044
g0
(g67
g2
Ntp2206
Rp2207
(dp2208
g14
I00
sg32
I01
sg71
g1215
sg15
I01
sbsg1965
g0
(g82
g2
Ntp2209
Rp2210
(dp2211
g14
I00
sg32
I01
sg71
I00
sg15
I00
sbsg1962
g0
(g82
g2
Ntp2212
Rp2213
(dp2214
g14
I00
sg32
I01
sg71
I00
sg15
I00
sbsg16
I8
sg1967
g0
(g82
g2
Ntp2215
Rp2216
(dp2217
g14
I00
sg32
I01
sg71
I00
sg15
I00
sbsg34
S'idealForDigiCSCGeometry'
p2218
sg1966
g0
(g82
g2
Ntp2219
Rp2220
(dp2221
g14
I00
sg32
I01
sg71
I01
sg15
I00
sbsg421
g0
(g82
g2
Ntp2222
Rp2223
(dp2224
g14
I00
sg32
I01
sg71
I00
sg15
I01
sbsg35
g1957
sbsI139758795148368
g0
(g7
g2
Ntp2225
Rp2226
(dp2227
g11
(lp2228
g150
asg14
I00
sg150
g0
(g67
g2
Ntp2229
Rp2230
(dp2231
g14
I00
sg32
I01
sg71
g72
sg15
I00
sbsg15
I00
sg16
I53
sg17
g18
sg34
S'CastorDbProducer'
p2232
sg35
g2232
sbsI139758795187792
g0
(g7
g2
Ntp2233
Rp2234
(dp2235
g11
(lp2236
g1097
aS'LorentzAngleDeconvMode'
p2237
aS'LorentzAnglePeakMode'
p2238
asg14
I00
sg15
I00
sg16
I53
sg17
g18
sg1097
g0
(g161
g2
Ntp2239
Rp2240
(dp2241
g14
I00
sg32
I01
sg15
I00
sg123
g0
(g67
g2
Ntp2242
Rp2243
(dp2244
g14
I00
sg32
I00
sg71
g72
sg15
I00
sbsg447
g0
(g67
g2
Ntp2245
Rp2246
(dp2247
g14
I00
sg32
I01
sg71
g1109
sg15
I00
sbsg11
(lp2248
g447
ag123
asbsg34
S'siStripLorentzAngleDepESProducer'
p2249
sg2238
g0
(g161
g2
Ntp2250
Rp2251
(dp2252
g14
I00
sg32
I01
sg15
I00
sg123
g0
(g67
g2
Ntp2253
Rp2254
(dp2255
g14
I00
sg32
I00
sg71
g1117
sg15
I00
sbsg447
g0
(g67
g2
Ntp2256
Rp2257
(dp2258
g14
I00
sg32
I01
sg71
S'SiStripLorentzAngleRcd'
p2259
sg15
I00
sbsg11
(lp2260
g447
ag123
asbsg35
S'SiStripLorentzAngleDepESProducer'
p2261
sg2237
g0
(g161
g2
Ntp2262
Rp2263
(dp2264
g14
I00
sg32
I01
sg15
I00
sg123
g0
(g67
g2
Ntp2265
Rp2266
(dp2267
g14
I00
sg32
I00
sg71
g1129
sg15
I00
sbsg447
g0
(g67
g2
Ntp2268
Rp2269
(dp2270
g14
I00
sg32
I01
sg71
g2259
sg15
I00
sbsg11
(lp2271
g447
ag123
asbsbsI139758804077776
g0
(g7
g2
Ntp2272
Rp2273
(dp2274
g11
(lp2275
sg14
I00
sg15
I00
sg16
I53
sg17
g18
sg34
S'CaloTowerTopologyEP'
p2276
sg35
g2276
sbsI139758804075344
g9
sI139758804039632
g0
(g7
g2
Ntp2277
Rp2278
(dp2279
g11
(lp2280
g1962
aS'compatibiltyWith11'
p2281
asg14
I00
sg15
I00
sg16
I53
sg17
g18
sg1962
g0
(g82
g2
Ntp2282
Rp2283
(dp2284
g14
I00
sg32
I00
sg71
I00
sg15
I00
sbsg2281
g0
(g82
g2
Ntp2285
Rp2286
(dp2287
g14
I00
sg32
I00
sg71
I01
sg15
I00
sbsg34
S'RPCGeometryESModule'
p2288
sg35
g2288
sbsI139758795011152
g0
(g7
g2
Ntp2289
Rp2290
(dp2291
g11
(lp2292
S'version'
p2293
ag1273
ag123
asg14
I00
sg15
I01
sg16
I53
sg17
g18
sg123
g0
(g67
g2
Ntp2294
Rp2295
(dp2296
g14
I00
sg32
I00
sg71
S'ParabolicMf'
p2297
sg15
I01
sbsg2293
g0
(g67
g2
Ntp2298
Rp2299
(dp2300
g14
I00
sg32
I01
sg71
S'Parabolic'
p2301
sg15
I00
sbsg1273
g0
(g518
g2
Ntp2302
Rp2303
(dp2304
g14
I00
sg32
I01
sg71
I18268
sg15
I01
sbsg34
S'ParabolicParametrizedMagneticFieldProducer'
p2305
sg35
S'AutoParametrizedMagneticFieldProducer'
p2306
sbsI139758794713040
g0
(g7
g2
Ntp2307
Rp2308
(dp2309
g11
(lp2310
g150
aS'PrintDebugOutput'
p2311
aS'ThresholdForReducedGranularity'
p2312
aS'UseEmptyRunInfo'
p2313
aS'ReduceGranularity'
p2314
ag441
asg14
I00
sg150
g0
(g67
g2
Ntp2315
Rp2316
(dp2317
g14
I00
sg32
I01
sg71
g72
sg15
I00
sbsg15
I01
sg16
I53
sg17
g18
sg2312
g0
(g846
g2
Ntp2318
Rp2319
(dp2320
g14
I00
sg32
I01
sg71
F0.3
sg15
I00
sbsg34
S'siStripQualityESProducer'
p2321
sg2313
g0
(g82
g2
Ntp2322
Rp2323
(dp2324
g14
I00
sg32
I01
sg71
I00
sg15
I00
sbsg2314
g0
(g82
g2
Ntp2325
Rp2326
(dp2327
g14
I00
sg32
I01
sg71
I00
sg15
I00
sbsg441
g0
(g442
g20
(lp2328
g0
(g161
g2
Ntp2329
Rp2330
(dp2331
g14
I00
sg32
I01
sg15
I00
sg447
g0
(g67
g2
Ntp2332
Rp2333
(dp2334
g14
I00
sg32
I01
sg71
S'SiStripDetVOffRcd'
p2335
sg15
I00
sbsg452
g0
(g67
g2
Ntp2336
Rp2337
(dp2338
g14
I00
sg32
I01
sg71
g72
sg15
I00
sbsg11
(lp2339
g447
ag452
asbag0
(g161
g2
Ntp2340
Rp2341
(dp2342
g14
I00
sg32
I01
sg15
I00
sg447
g0
(g67
g2
Ntp2343
Rp2344
(dp2345
g14
I00
sg32
I01
sg71
S'SiStripDetCablingRcd'
p2346
sg15
I00
sbsg452
g0
(g67
g2
Ntp2347
Rp2348
(dp2349
g14
I00
sg32
I01
sg71
g72
sg15
I00
sbsg11
(lp2350
g447
ag452
asbag0
(g161
g2
Ntp2351
Rp2352
(dp2353
g14
I00
sg32
I01
sg15
I00
sg447
g0
(g67
g2
Ntp2354
Rp2355
(dp2356
g14
I00
sg32
I01
sg71
S'RunInfoRcd'
p2357
sg15
I00
sbsg452
g0
(g67
g2
Ntp2358
Rp2359
(dp2360
g14
I00
sg32
I01
sg71
g72
sg15
I00
sbsg11
(lp2361
g447
ag452
asbag0
(g161
g2
Ntp2362
Rp2363
(dp2364
g14
I00
sg32
I01
sg15
I00
sg447
g0
(g67
g2
Ntp2365
Rp2366
(dp2367
g14
I00
sg32
I01
sg71
S'SiStripBadChannelRcd'
p2368
sg15
I00
sbsg452
g0
(g67
g2
Ntp2369
Rp2370
(dp2371
g14
I00
sg32
I01
sg71
g72
sg15
I00
sbsg11
(lp2372
g447
ag452
asbag0
(g161
g2
Ntp2373
Rp2374
(dp2375
g14
I00
sg32
I01
sg15
I00
sg447
g0
(g67
g2
Ntp2376
Rp2377
(dp2378
g14
I00
sg32
I01
sg71
S'SiStripBadFiberRcd'
p2379
sg15
I00
sbsg452
g0
(g67
g2
Ntp2380
Rp2381
(dp2382
g14
I00
sg32
I01
sg71
g72
sg15
I00
sbsg11
(lp2383
g447
ag452
asbag0
(g161
g2
Ntp2384
Rp2385
(dp2386
g14
I00
sg32
I01
sg15
I00
sg447
g0
(g67
g2
Ntp2387
Rp2388
(dp2389
g14
I00
sg32
I01
sg71
S'SiStripBadModuleRcd'
p2390
sg15
I00
sbsg452
g0
(g67
g2
Ntp2391
Rp2392
(dp2393
g14
I00
sg32
I01
sg71
g72
sg15
I00
sbsg11
(lp2394
g447
ag452
asbag0
(g161
g2
Ntp2395
Rp2396
(dp2397
g14
I00
sg32
I01
sg15
I00
sg447
g0
(g67
g2
Ntp2398
Rp2399
(dp2400
g14
I00
sg32
I01
sg71
S'SiStripBadStripRcd'
p2401
sg15
I00
sbsg452
g0
(g67
g2
Ntp2402
Rp2403
(dp2404
g14
I00
sg32
I01
sg71
g72
sg15
I00
sbsg11
(lp2405
g447
ag452
asbatp2406
Rp2407
(dp2408
g14
I00
sg32
I01
sg15
I00
sg33
I1
sbsg35
S'SiStripQualityESProducer'
p2409
sg2311
g0
(g82
g2
Ntp2410
Rp2411
(dp2412
g14
I00
sg32
I01
sg71
I00
sg15
I00
sbsbsI139758804041296
g0
(g7
g2
Ntp2413
Rp2414
(dp2415
g11
(lp2416
sg14
I00
sg15
I00
sg16
I53
sg17
g18
sg34
S'GlobalTrackingGeometryESProducer'
p2417
sg35
g2417
sbsI139758804041360
g0
(g7
g2
Ntp2418
Rp2419
(dp2420
g11
(lp2421
sg14
I00
sg15
I00
sg16
I53
sg17
g18
sg34
S'TrackerRecoGeometryESProducer'
p2422
sg35
g2422
sbsI139758804078288
g0
(g7
g2
Ntp2423
Rp2424
(dp2425
g11
(lp2426
g421
asg14
I00
sg15
I00
sg16
I53
sg17
g18
sg34
S'ZdcGeometryFromDBEP'
p2427
sg421
g0
(g82
g2
Ntp2428
Rp2429
(dp2430
g14
I00
sg32
I01
sg71
I00
sg15
I00
sbsg35
g2427
sbsI139758804041488
g0
(g7
g2
Ntp2431
Rp2432
(dp2433
g11
(lp2434
g150
asg14
I00
sg150
g0
(g67
g2
Ntp2435
Rp2436
(dp2437
g14
I00
sg32
I01
sg71
g72
sg15
I00
sbsg15
I00
sg16
I53
sg17
g18
sg34
S'trackerTopology'
p2438
sg35
S'TrackerTopologyEP'
p2439
sbsI139758804111184
g0
(g7
g2
Ntp2440
Rp2441
(dp2442
g11
(lp2443
g150
ag1043
ag421
ag1044
asg14
I00
sg150
g0
(g67
g2
Ntp2444
Rp2445
(dp2446
g14
I00
sg32
I01
sg71
g1211
sg15
I01
sbsg15
I01
sg1044
g0
(g67
g2
Ntp2447
Rp2448
(dp2449
g14
I00
sg32
I01
sg71
g1215
sg15
I01
sbsg17
S'/cvmfs/cms.cern.ch/slc7_amd64_gcc700/cms/cmssw-patch/CMSSW_10_3_3_patch1/python/Geometry/DTGeometryBuilder/idealForDigiDtGeometryDB_cff.py'
p2450
sg16
I8
sg34
S'idealForDigiDTGeometry'
p2451
sg1043
g0
(g82
g2
Ntp2452
Rp2453
(dp2454
g14
I00
sg32
I01
sg71
I00
sg15
I00
sbsg421
g0
(g82
g2
Ntp2455
Rp2456
(dp2457
g14
I00
sg32
I01
sg71
I00
sg15
I01
sbsg35
g1251
sbsI139758804076432
g1006
sI139758804426640
g1312
sI139758804041680
g559
sI139758804107344
g0
(g7
g2
Ntp2458
Rp2459
(dp2460
g11
(lp2461
g421
asg14
I00
sg15
I00
sg16
I53
sg17
g18
sg34
S'CastorGeometryFromDBEP'
p2462
sg421
g0
(g82
g2
Ntp2463
Rp2464
(dp2465
g14
I00
sg32
I01
sg71
I00
sg15
I00
sbsg35
g2462
sbsI139758795108560
g1014
sI139758795108624
g0
(g7
g2
Ntp2466
Rp2467
(dp2468
g11
(lp2469
S'file'
p2470
aS'dump'
p2471
asg14
I00
sg15
I00
sg2471
g0
(g19
g20
(lp2472
g72
atp2473
Rp2474
(dp2475
g14
I00
sg32
I00
sg15
I00
sg33
I1
sbsg16
I53
sg17
g18
sg2470
g0
(g67
g2
Ntp2476
Rp2477
(dp2478
g14
I00
sg32
I00
sg71
g72
sg15
I00
sbsg34
S'hcal_db_producer'
p2479
sg35
S'HcalDbProducer'
p2480
sbsI139758804074896
g1287
sI139758795188816
g0
(g7
g2
Ntp2481
Rp2482
(dp2483
g11
(lp2484
g2061
ag1296
ag2062
asg14
I00
sg15
I00
sg2062
g0
(g161
g2
Ntp2485
Rp2486
(dp2487
g14
I00
sg32
I01
sg15
I00
sg11
(lp2488
sbsg16
I53
sg1296
g0
(g67
g2
Ntp2489
Rp2490
(dp2491
g14
I00
sg32
I01
sg71
S'stripCPE'
p2492
sg15
I00
sbsg2061
g0
(g67
g2
Ntp2493
Rp2494
(dp2495
g14
I00
sg32
I01
sg71
S'SimpleStripCPE'
p2496
sg15
I00
sbsg17
g18
sg34
S'stripCPEESProducer'
p2497
sg35
g2128
sbsI139758804157904
g1189
sI139758795010640
g1270
sI139758804077328
g0
(g7
g2
Ntp2498
Rp2499
(dp2500
g11
(lp2501
S'MergePosition'
p2502
aS'Exclude'
p2503
ag150
asg14
I00
sg150
g0
(g67
g2
Ntp2504
Rp2505
(dp2506
g14
I00
sg32
I01
sg71
g72
sg15
I00
sbsg15
I00
sg16
I53
sg2502
g0
(g82
g2
Ntp2507
Rp2508
(dp2509
g14
I00
sg32
I00
sg71
I00
sg15
I00
sbsg17
g18
sg34
S'hcalTopologyIdeal'
p2510
sg2503
g0
(g67
g2
Ntp2511
Rp2512
(dp2513
g14
I00
sg32
I00
sg71
g72
sg15
I00
sbsg35
S'HcalTopologyIdealEP'
p2514
sbsI139758794745936
g52
sI139758804157136
g119
ssg2190
g2140
sg2288
g2278
sg2055
g2052
sg2427
g2424
sg2422
g2419
sg2249
g2234
sg2276
g2273
sg2305
g2290
sg2497
g2482
sg2438
g2432
sg2462
g2459
sg1177
g1180
sg2023
g2020
sg2127
g2058
sS'_Process__aliases'
p2515
(dp2516
sg2417
g2414
sg2510
g2499
sg2050
g2047
sg2033
g2030
sg2044
g2038
sg2232
g2226
sg2218
g2193
sS'_Process__subProcesses'
p2517
(lp2518
sg2479
g2467
sg1228
g1231
sg2028
g2025
sS'_Process__schedule'
p2519
Nsg2321
g2308
sg2451
g2441
sS'_Process__modifiers'
p2520
(tsS'_Process__filters'
p2521
(dp2522
g66
g52
ssS'_Process__esproducers'
p2523
(dp2524
g6
g9
sg2321
g2308
sg2028
g2025
sg2422
g2419
sg1268
g1270
sg2127
g2058
sg2462
g2459
sg1285
g1287
sg2417
g2414
sg117
g119
sg1038
g1040
sg2249
g2234
sg2510
g2499
sg2050
g2047
sg2033
g2030
sg2232
g2226
sg2044
g2038
sg1957
g1959
sg1995
g1997
sg2003
g2005
sg2023
g2020
sg1082
g1084
sg2218
g2193
sg416
g418
sg1092
g1094
sg2479
g2467
sg2190
g2140
sg1290
g1292
sg2288
g2278
sg2451
g2441
sg2427
g2424
sg1251
g1253
sg562
g564
sg2055
g2052
sg436
g438
sg1203
g1205
sg2276
g2273
sg2305
g2290
sg2497
g2482
sg145
g147
sg557
g559
sg2438
g2432
sg1246
g1248
sg2137
g2130
sg1004
g1006
ssS'_Process__partialschedules'
p2525
(dp2526
sg2137
g2130
sb.